

Microchip MPLAB XC8 Assembler V2.46 build 20240104201356 
                                                                                               Tue Feb 13 10:39:10 2024

Microchip MPLAB XC8 C Compiler v2.46 (Free license) build 20240104201356 Og1 
     1                           	processor	18F56Q71
     2                           	fnconf	rparam,??,?,0
     3                           	pagewidth 120
     4                           	opt	flic
     5                           	psect	smallconst,global,reloc=2,class=SMALLCONST,delta=1,noexec
     6                           	psect	nvCOMRAM,global,class=COMRAM,space=1,delta=1,lowdata,noexec
     7                           	psect	cinit,global,reloc=2,class=CODE,delta=1
     8                           	psect	bssCOMRAM,global,class=COMRAM,space=1,delta=1,lowdata,noexec
     9                           	psect	cstackCOMRAM,global,class=COMRAM,space=1,delta=1,lowdata,noexec
    10                           	psect	text0,global,reloc=2,class=CODE,delta=1
    11                           	psect	text1,global,reloc=2,class=CODE,delta=1
    12                           	psect	text2,global,reloc=2,class=CODE,delta=1
    13                           	psect	text3,global,reloc=2,class=CODE,delta=1
    14                           	psect	text4,global,reloc=2,class=CODE,delta=1
    15                           	psect	text5,global,reloc=2,class=CODE,delta=1
    16                           	psect	text6,global,reloc=2,class=CODE,delta=1
    17                           	psect	text7,global,reloc=2,class=CODE,delta=1
    18                           	psect	text8,global,reloc=2,class=CODE,delta=1
    19                           	psect	text9,global,reloc=2,class=CODE,delta=1
    20                           	psect	text10,global,reloc=2,class=CODE,delta=1
    21                           	psect	text11,global,reloc=2,class=CODE,delta=1
    22                           	psect	text12,global,reloc=2,class=CODE,delta=1
    23                           	psect	text13,global,reloc=2,class=CODE,delta=1
    24                           	psect	text14,global,reloc=2,class=CODE,delta=1
    25                           	psect	text15,global,reloc=2,class=CODE,delta=1
    26                           	psect	text16,global,reloc=2,class=CODE,delta=1
    27                           	psect	text17,global,reloc=2,class=CODE,delta=1
    28                           	psect	text18,global,reloc=2,class=CODE,delta=1
    29                           	psect	text19,global,reloc=2,class=CODE,delta=1
    30                           	psect	text20,global,reloc=2,class=CODE,delta=1
    31                           	psect	text21,global,reloc=2,class=CODE,delta=1
    32                           	psect	ivt0x8,global,reloc=2,class=CODE,delta=1,noexec,keep,optim=
    33                           	psect	intsave_regs,global,class=BIGRAM,space=1,delta=1,noexec
    34                           	psect	rparam,global,class=COMRAM,space=1,delta=1,noexec
    35                           	psect	config,global,abs,ovrld,class=CONFIG,space=4,delta=1,noexec
    36   000000                     
    37                           ; Generated 18/12/2023 GMT
    38                           ; 
    39                           ; Copyright © 2023, Microchip Technology Inc. and its subsidiaries ("Microchip")
    40                           ; All rights reserved.
    41                           ; 
    42                           ; This software is developed by Microchip Technology Inc. and its subsidiaries ("Microch
      +                          ip").
    43                           ; 
    44                           ; Redistribution and use in source and binary forms, with or without modification, are
    45                           ; permitted provided that the following conditions are met:
    46                           ; 
    47                           ;     1. Redistributions of source code must retain the above copyright notice, this lis
      +                          t of
    48                           ;        conditions and the following disclaimer.
    49                           ; 
    50                           ;     2. Redistributions in binary form must reproduce the above copyright notice, this 
      +                          list
    51                           ;        of conditions and the following disclaimer in the documentation and/or other
    52                           ;        materials provided with the distribution. Publication is not required when
    53                           ;        this file is used in an embedded application.
    54                           ; 
    55                           ;     3. Microchip's name may not be used to endorse or promote products derived from th
      +                          is
    56                           ;        software without specific prior written permission.
    57                           ; 
    58                           ; THIS SOFTWARE IS PROVIDED BY MICROCHIP "AS IS" AND ANY EXPRESS OR IMPLIED WARRANTIES,
    59                           ; INCLUDING, BUT NOT LIMITED TO, THE IMPLIED WARRANTIES OF MERCHANTABILITY AND FITNESS F
      +                          OR
    60                           ; PURPOSE ARE DISCLAIMED.  IN NO EVENT SHALL MICROCHIP BE LIABLE FOR ANY DIRECT, INDIREC
      +                          T,
    61                           ; INCIDENTAL, SPECIAL, EXEMPLARY, OR CONSEQUENTIAL DAMAGES (INCLUDING BUT NOT LIMITED TO
    62                           ; PROCUREMENT OF SUBSTITUTE GOODS OR SERVICES; LOSS OF USE, DATA OR PROFITS; OR BUSINESS
    63                           ; INTERRUPTION) HOWSOEVER CAUSED AND ON ANY THEORY OF LIABILITY, WHETHER IN CONTRACT, ST
      +                          RICT
    64                           ; LIABILITY, OR TORT (INCLUDING NEGLIGENCE OR OTHERWISE) ARISING IN ANY WAY OUT OF THE U
      +                          SE OF
    65                           ; THIS SOFTWARE, EVEN IF ADVISED OF THE POSSIBILITY OF SUCH DAMAGE.
    66                           ; 
    67                           ; 
    68                           ; Code-generator required, PIC18F56Q71 Definitions
    69                           ; 
    70                           ; SFR Addresses
    71   000000                     
    72 ;; Function _INT0_DefaultInterruptHandler is unused but had its address taken
    73   000000                     
    74 ;; Function _INT1_DefaultInterruptHandler is unused but had its address taken
    75   000000                     
    76 ;; Function _INT2_DefaultInterruptHandler is unused but had its address taken
    77   000000                     
    78 ;; Function _UART2_Deinitialize is unused but had its address taken
    79   000000                     
    80 ;; Function _UART2_TransmitEnable is unused but had its address taken
    81   000000                     
    82 ;; Function _UART2_TransmitDisable is unused but had its address taken
    83   000000                     
    84 ;; Function _UART2_AutoBaudSet is unused but had its address taken
    85   000000                     
    86 ;; Function _UART2_AutoBaudQuery is unused but had its address taken
    87   000000                     
    88 ;; Function _UART2_IsRxReady is unused but had its address taken
    89   000000                     
    90 ;; Function _UART2_IsTxReady is unused but had its address taken
    91   000000                     
    92 ;; Function _UART2_IsTxDone is unused but had its address taken
    93   000000                     
    94 ;; Function _UART2_ErrorGet is unused but had its address taken
    95   000000                     
    96 ;; Function _UART2_Read is unused but had its address taken
    97   000000                     
    98 ;; Function _UART2_DefaultParityErrorCallback is unused but had its address taken
    99   000000                     
   100 ;; Function _UART2_RxCompleteCallbackRegister is unused but had its address taken
   101   000000                     
   102 ;; Function _UART2_TxCompleteCallbackRegister is unused but had its address taken
   103   000000                     
   104                           	psect	smallconst
   105   001500                     __psmallconst:
   106                           	callstack 0
   107   001500  00                 	db	0
   108   001501                     _UART2:
   109                           	callstack 0
   110   001501  EA                 	db	low _UART2_Initialize
   111   001502  17                 	db	high _UART2_Initialize
   112   001503  00                 	db	0
   113   001504  00                 	db	0
   114   001505  00                 	db	0
   115   001506  00                 	db	0
   116   001507  80                 	db	low _UART2_Write
   117   001508  18                 	db	high _UART2_Write
   118   001509  00                 	db	0
   119   00150A  00                 	db	0
   120   00150B  00                 	db	0
   121   00150C  00                 	db	0
   122   00150D  00                 	db	0
   123   00150E  00                 	db	0
   124   00150F  00                 	db	0
   125   001510  00                 	db	0
   126   001511  00                 	db	0
   127   001512  00                 	db	0
   128   001513  00                 	db	0
   129   001514  00                 	db	0
   130   001515  00                 	db	0
   131   001516  00                 	db	0
   132   001517  00                 	db	0
   133   001518  00                 	db	0
   134   001519  00                 	db	0
   135   00151A  00                 	db	0
   136   00151B  00                 	db	0
   137   00151C  00                 	db	0
   138   00151D  00                 	db	0
   139   00151E  00                 	db	0
   140   00151F  00                 	db	0
   141   001520  00                 	db	0
   142   001521  00                 	db	0
   143   001522  00                 	db	0
   144   001523  00                 	db	0
   145   001524  00                 	db	0
   146   001525  00                 	db	0
   147   001526  00                 	db	0
   148   001527  00                 	db	0
   149   001528  00                 	db	0
   150   001529  DE                 	db	low _UART2_FramingErrorCallbackRegister
   151   00152A  19                 	db	high _UART2_FramingErrorCallbackRegister
   152   00152B  C2                 	db	low _UART2_OverrunErrorCallbackRegister
   153   00152C  19                 	db	high _UART2_OverrunErrorCallbackRegister
   154   00152D  A6                 	db	low _UART2_ParityErrorCallbackRegister
   155   00152E  19                 	db	high _UART2_ParityErrorCallbackRegister
   156   00152F  00                 	db	0
   157   001530  00                 	db	0
   158   001531                     __end_of_UART2:
   159                           	callstack 0
   160   000000                     _IOCEF	set	1063
   161   000000                     _IOCEN	set	1062
   162   000000                     _IOCEP	set	1061
   163   000000                     _IOCCF	set	1047
   164   000000                     _IOCCN	set	1046
   165   000000                     _IOCCP	set	1045
   166   000000                     _IOCBF	set	1039
   167   000000                     _IOCBN	set	1038
   168   000000                     _IOCBP	set	1037
   169   000000                     _IOCAF	set	1031
   170   000000                     _IOCAN	set	1030
   171   000000                     _IOCAP	set	1029
   172   000000                     _RC4I2C	set	647
   173   000000                     _RC3I2C	set	648
   174   000000                     _INLVLE	set	1060
   175   000000                     _INLVLC	set	1044
   176   000000                     _INLVLB	set	1036
   177   000000                     _INLVLA	set	1028
   178   000000                     _SLRCONE	set	1059
   179   000000                     _SLRCONC	set	1043
   180   000000                     _SLRCONB	set	1035
   181   000000                     _SLRCONA	set	1027
   182   000000                     _ODCONE	set	1058
   183   000000                     _ODCONC	set	1042
   184   000000                     _ODCONB	set	1034
   185   000000                     _ODCONA	set	1026
   186   000000                     _WPUE	set	1057
   187   000000                     _WPUC	set	1041
   188   000000                     _WPUB	set	1033
   189   000000                     _WPUA	set	1025
   190   000000                     _ANSELF	set	1064
   191   000000                     _ANSELD	set	1048
   192   000000                     _ANSELC	set	1040
   193   000000                     _ANSELB	set	1032
   194   000000                     _OSCTUNE	set	176
   195   000000                     _OSCFRQ	set	177
   196   000000                     _OSCEN	set	179
   197   001531  00                 	db	0	; dummy byte at the end
   198   000000                     
   199                           	psect	nvCOMRAM
   200   000540                     __pnvCOMRAM:
   201                           	callstack 0
   202   000540                     _SW0_InterruptHandler:
   203                           	callstack 0
   204   000540                     	ds	2
   205   000542                     _UART2_RxInterruptHandler:
   206                           	callstack 0
   207   000542                     	ds	2
   208   000544                     _UART2_TxInterruptHandler:
   209                           	callstack 0
   210   000544                     	ds	2
   211   000000                     _LATCbits	set	322
   212   000000                     _U2ERRIRbits	set	709
   213   000000                     _U2UIRbits	set	708
   214   000000                     _U2CON0bits	set	702
   215   000000                     _U2CON1bits	set	703
   216   000000                     _IOCAFbits	set	1031
   217   000000                     _ACTCON	set	172
   218   000000                     _OSCCON1	set	173
   219   000000                     _OSCCON3	set	175
   220   000000                     _LATA	set	320
   221   000000                     _FSCMCON	set	1112
   222   000000                     _PIE0bits	set	1191
   223   000000                     _PIR1bits	set	1203
   224   000000                     _INTCON0bits	set	1238
   225   000000                     _PIR6bits	set	1208
   226   000000                     _PIR8bits	set	1210
   227   000000                     _PIR10bits	set	1212
   228   000000                     _PIE8bits	set	1199
   229   000000                     _PIR0bits	set	1202
   230   000000                     _TRISA	set	328
   231   000000                     _LATF	set	325
   232   000000                     _LATE	set	324
   233   000000                     _LATD	set	323
   234   000000                     _LATC	set	322
   235   000000                     _LATB	set	321
   236   000000                     _RB4PPS	set	525
   237   000000                     _U2RXPPS	set	628
   238   000000                     _RB2I2C	set	645
   239   000000                     _RB1I2C	set	646
   240   000000                     _ANSELA	set	1024
   241   000000                     _TRISF	set	333
   242   000000                     _TRISE	set	332
   243   000000                     _TRISD	set	331
   244   000000                     _TRISC	set	330
   245   000000                     _TRISB	set	329
   246   000000                     _INLVLD	set	1052
   247   000000                     _SLRCOND	set	1051
   248   000000                     _ODCOND	set	1050
   249   000000                     _WPUD	set	1049
   250   000000                     _ANSELE	set	1056
   251   000000                     _IOCWP	set	1085
   252   000000                     _INLVLF	set	1068
   253   000000                     _SLRCONF	set	1067
   254   000000                     _ODCONF	set	1066
   255   000000                     _WPUF	set	1065
   256   000000                     _U2RXB	set	692
   257   000000                     _IOCWF	set	1087
   258   000000                     _IOCWN	set	1086
   259   000000                     _U2TXB	set	694
   260   000000                     _U2P1L	set	696
   261   000000                     _U2P2L	set	698
   262   000000                     _U2P3L	set	700
   263   000000                     _U2CON0	set	702
   264   000000                     _U2ERRIE	set	710
   265   000000                     _U2ERRIR	set	709
   266   000000                     _U2UIR	set	708
   267   000000                     _U2FIFO	set	707
   268   000000                     _U2BRGH	set	706
   269   000000                     _U2BRGL	set	705
   270   000000                     _U2CON2	set	704
   271   000000                     _U2CON1	set	703
   272                           
   273                           ; #config settings
   274                           
   275                           	psect	cinit
   276   001986                     __pcinit:
   277                           	callstack 0
   278   001986                     start_initialization:
   279                           	callstack 0
   280   001986                     __initialization:
   281                           	callstack 0
   282                           
   283                           ; Clear objects allocated to COMRAM (56 bytes)
   284   001986  EE01  F101         	lfsr	0,__pbssCOMRAM
   285   00198A  0E38               	movlw	56
   286   00198C                     clear_0:
   287   00198C  6AEE               	clrf	postinc0,c
   288   00198E  06E8               	decf	wreg,f,c
   289   001990  E1FD               	bnz	clear_0
   290                           
   291                           ;
   292                           ; Setup IVTBASE
   293                           ;
   294   001992  0104               	movlb	4
   295   001994  0E08               	movlw	(ivt0x8_base shr 0)& (0+255)
   296   001996  6F5D               	movwf	93,b
   297   001998  0E00               	movlw	(ivt0x8_base shr (0+8))& (0+255)
   298   00199A  6F5E               	movwf	94,b
   299   00199C  0E00               	movlw	(ivt0x8_base shr (0+16))& (0+255)
   300   00199E  6F5F               	movwf	95,b
   301   0019A0                     end_of_initialization:
   302                           	callstack 0
   303   0019A0                     __end_of__initialization:
   304                           	callstack 0
   305   0019A0  0100               	movlb	0
   306   0019A2  EF11  F00D         	goto	_main	;jump to C main() function
   307                           
   308                           	psect	bssCOMRAM
   309   000501                     __pbssCOMRAM:
   310                           	callstack 0
   311   000501                     _uart2RxStatusBuffer:
   312                           	callstack 0
   313   000501                     	ds	16
   314   000511                     _uart2RxBuffer:
   315                           	callstack 0
   316   000511                     	ds	8
   317   000519                     _uart2TxBuffer:
   318                           	callstack 0
   319   000519                     	ds	8
   320   000521                     _UART2_RxCompleteInterruptHandler:
   321                           	callstack 0
   322   000521                     	ds	2
   323   000523                     _UART2_TxCompleteInterruptHandler:
   324                           	callstack 0
   325   000523                     	ds	2
   326   000525                     _UART2_ParityErrorHandler:
   327                           	callstack 0
   328   000525                     	ds	2
   329   000527                     _UART2_OverrunErrorHandler:
   330                           	callstack 0
   331   000527                     	ds	2
   332   000529                     _UART2_FramingErrorHandler:
   333                           	callstack 0
   334   000529                     	ds	2
   335   00052B                     _uart2RxLastError:
   336                           	callstack 0
   337   00052B                     	ds	2
   338   00052D                     _INT2_InterruptHandler:
   339                           	callstack 0
   340   00052D                     	ds	2
   341   00052F                     _INT1_InterruptHandler:
   342                           	callstack 0
   343   00052F                     	ds	2
   344   000531                     _INT0_InterruptHandler:
   345                           	callstack 0
   346   000531                     	ds	2
   347   000533                     _uart2RxCount:
   348                           	callstack 0
   349   000533                     	ds	1
   350   000534                     _uart2RxTail:
   351                           	callstack 0
   352   000534                     	ds	1
   353   000535                     _uart2RxHead:
   354                           	callstack 0
   355   000535                     	ds	1
   356   000536                     _uart2TxBufferRemaining:
   357                           	callstack 0
   358   000536                     	ds	1
   359   000537                     _uart2TxTail:
   360                           	callstack 0
   361   000537                     	ds	1
   362   000538                     _uart2TxHead:
   363                           	callstack 0
   364   000538                     	ds	1
   365                           
   366                           	psect	cstackCOMRAM
   367   000539                     __pcstackCOMRAM:
   368                           	callstack 0
   369   000539                     ??_UART2_ReceiveISR:
   370   000539                     UART2_Write@tempTxHead:
   371                           	callstack 0
   372   000539                     UART2_TransmitISR@tempTxTail:
   373                           	callstack 0
   374                           
   375                           ; 1 bytes @ 0x0
   376   000539                     	ds	1
   377   00053A                     UART2_ReceiveISR@regValue:
   378                           	callstack 0
   379   00053A                     UART2_Write@txData:
   380                           	callstack 0
   381                           
   382                           ; 1 bytes @ 0x1
   383   00053A                     	ds	1
   384   00053B                     UART2_ReceiveISR@tempRxHead:
   385                           	callstack 0
   386                           
   387                           ; 1 bytes @ 0x2
   388   00053B                     	ds	1
   389   00053C                     ??_INTERRUPT_InterruptManager:
   390                           
   391                           ; 1 bytes @ 0x3
   392   00053C                     	ds	2
   393   00053E                     INT0_SetInterruptHandler@InterruptHandler:
   394                           	callstack 0
   395   00053E                     INT1_SetInterruptHandler@InterruptHandler:
   396                           	callstack 0
   397   00053E                     INT2_SetInterruptHandler@InterruptHandler:
   398                           	callstack 0
   399   00053E                     SW0_SetInterruptHandler@InterruptHandler:
   400                           	callstack 0
   401   00053E                     UART2_FramingErrorCallbackRegister@callbackHandler:
   402                           	callstack 0
   403   00053E                     UART2_OverrunErrorCallbackRegister@callbackHandler:
   404                           	callstack 0
   405   00053E                     UART2_ParityErrorCallbackRegister@callbackHandler:
   406                           	callstack 0
   407                           
   408                           ; 2 bytes @ 0x5
   409   00053E                     	ds	2
   410   000540                     
   411                           ; 1 bytes @ 0x7
   412 ;;
   413 ;;Main: autosize = 0, tempsize = 0, incstack = 0, save=0
   414 ;;
   415 ;; *************** function _main *****************
   416 ;; Defined at:
   417 ;;		line 39 in file "main.c"
   418 ;; Parameters:    Size  Location     Type
   419 ;;		None
   420 ;; Auto vars:     Size  Location     Type
   421 ;;		None
   422 ;; Return value:  Size  Location     Type
   423 ;;                  2  558[None  ] int 
   424 ;; Registers used:
   425 ;;		wreg, status,2, status,0, cstack
   426 ;; Tracked objects:
   427 ;;		On entry : 0/0
   428 ;;		On exit  : 0/0
   429 ;;		Unchanged: 0/0
   430 ;; Data sizes:     COMRAM   BANK5   BANK6   BANK7   BANK8   BANK9  BANK10  BANK11  BANK12  BANK13  BANK14  BANK15  BANK1
      +6  BANK17  BANK18  BANK19  BANK20
   431 ;;      Params:         0       0       0       0       0       0       0       0       0       0       0       0       
      +0       0       0       0       0
   432 ;;      Locals:         0       0       0       0       0       0       0       0       0       0       0       0       
      +0       0       0       0       0
   433 ;;      Temps:          0       0       0       0       0       0       0       0       0       0       0       0       
      +0       0       0       0       0
   434 ;;      Totals:         0       0       0       0       0       0       0       0       0       0       0       0       
      +0       0       0       0       0
   435 ;;Total ram usage:        0 bytes
   436 ;; Hardware stack levels required when called: 8
   437 ;; This function calls:
   438 ;;		_SYSTEM_Initialize
   439 ;; This function is called by:
   440 ;;		Startup code after reset
   441 ;; This function uses a non-reentrant model
   442 ;;
   443                           
   444                           	psect	text0
   445   001A22                     __ptext0:
   446                           	callstack 0
   447   001A22                     _main:
   448                           	callstack 119
   449   001A22                     
   450                           ;main.c: 41:     SYSTEM_Initialize();
   451   001A22  EC08  F00D         	call	_SYSTEM_Initialize	;wreg free
   452   001A26                     
   453                           ;main.c: 48:     (INTCON0bits.GIE = 1);
   454   001A26  8ED6               	bsf	214,7,c	;volatile
   455   001A28                     l559:
   456   001A28  EF14  F00D         	goto	l559
   457   001A2C  EF0D  F000         	goto	start
   458   001A30                     __end_of_main:
   459                           	callstack 0
   460                           
   461 ;; *************** function _SYSTEM_Initialize *****************
   462 ;; Defined at:
   463 ;;		line 36 in file "mcc_generated_files/system/src/system.c"
   464 ;; Parameters:    Size  Location     Type
   465 ;;		None
   466 ;; Auto vars:     Size  Location     Type
   467 ;;		None
   468 ;; Return value:  Size  Location     Type
   469 ;;                  1    wreg      void 
   470 ;; Registers used:
   471 ;;		wreg, status,2, status,0, cstack
   472 ;; Tracked objects:
   473 ;;		On entry : 0/0
   474 ;;		On exit  : 0/0
   475 ;;		Unchanged: 0/0
   476 ;; Data sizes:     COMRAM   BANK5   BANK6   BANK7   BANK8   BANK9  BANK10  BANK11  BANK12  BANK13  BANK14  BANK15  BANK1
      +6  BANK17  BANK18  BANK19  BANK20
   477 ;;      Params:         0       0       0       0       0       0       0       0       0       0       0       0       
      +0       0       0       0       0
   478 ;;      Locals:         0       0       0       0       0       0       0       0       0       0       0       0       
      +0       0       0       0       0
   479 ;;      Temps:          0       0       0       0       0       0       0       0       0       0       0       0       
      +0       0       0       0       0
   480 ;;      Totals:         0       0       0       0       0       0       0       0       0       0       0       0       
      +0       0       0       0       0
   481 ;;Total ram usage:        0 bytes
   482 ;; Hardware stack levels used: 1
   483 ;; Hardware stack levels required when called: 7
   484 ;; This function calls:
   485 ;;		_CLOCK_Initialize
   486 ;;		_INTERRUPT_Initialize
   487 ;;		_PIN_MANAGER_Initialize
   488 ;;		_UART2_Initialize
   489 ;; This function is called by:
   490 ;;		_main
   491 ;; This function uses a non-reentrant model
   492 ;;
   493                           
   494                           	psect	text1
   495   001A10                     __ptext1:
   496                           	callstack 0
   497   001A10                     _SYSTEM_Initialize:
   498                           	callstack 119
   499   001A10                     
   500                           ;mcc_generated_files/system/src/system.c: 38:     CLOCK_Initialize();
   501   001A10  ECB2  F00C         	call	_CLOCK_Initialize	;wreg free
   502   001A14                     
   503                           ;mcc_generated_files/system/src/system.c: 39:     PIN_MANAGER_Initialize();
   504   001A14  EC27  F00B         	call	_PIN_MANAGER_Initialize	;wreg free
   505   001A18                     
   506                           ;mcc_generated_files/system/src/system.c: 40:     UART2_Initialize();
   507   001A18  ECF5  F00B         	call	_UART2_Initialize	;wreg free
   508   001A1C                     
   509                           ;mcc_generated_files/system/src/system.c: 41:     INTERRUPT_Initialize();
   510   001A1C  EC80  F00C         	call	_INTERRUPT_Initialize	;wreg free
   511   001A20  0012               	return		;funcret
   512   001A22                     __end_of_SYSTEM_Initialize:
   513                           	callstack 0
   514                           
   515 ;; *************** function _UART2_Initialize *****************
   516 ;; Defined at:
   517 ;;		line 118 in file "mcc_generated_files/uart/src/uart2.c"
   518 ;; Parameters:    Size  Location     Type
   519 ;;		None
   520 ;; Auto vars:     Size  Location     Type
   521 ;;		None
   522 ;; Return value:  Size  Location     Type
   523 ;;                  1    wreg      void 
   524 ;; Registers used:
   525 ;;		wreg, status,2, status,0, cstack
   526 ;; Tracked objects:
   527 ;;		On entry : 0/0
   528 ;;		On exit  : 0/0
   529 ;;		Unchanged: 0/0
   530 ;; Data sizes:     COMRAM   BANK5   BANK6   BANK7   BANK8   BANK9  BANK10  BANK11  BANK12  BANK13  BANK14  BANK15  BANK1
      +6  BANK17  BANK18  BANK19  BANK20
   531 ;;      Params:         0       0       0       0       0       0       0       0       0       0       0       0       
      +0       0       0       0       0
   532 ;;      Locals:         0       0       0       0       0       0       0       0       0       0       0       0       
      +0       0       0       0       0
   533 ;;      Temps:          0       0       0       0       0       0       0       0       0       0       0       0       
      +0       0       0       0       0
   534 ;;      Totals:         0       0       0       0       0       0       0       0       0       0       0       0       
      +0       0       0       0       0
   535 ;;Total ram usage:        0 bytes
   536 ;; Hardware stack levels used: 1
   537 ;; Hardware stack levels required when called: 6
   538 ;; This function calls:
   539 ;;		_UART2_FramingErrorCallbackRegister
   540 ;;		_UART2_OverrunErrorCallbackRegister
   541 ;;		_UART2_ParityErrorCallbackRegister
   542 ;; This function is called by:
   543 ;;		_SYSTEM_Initialize
   544 ;; This function uses a non-reentrant model
   545 ;;
   546                           
   547                           	psect	text2
   548   0017EA                     __ptext2:
   549                           	callstack 0
   550   0017EA                     _UART2_Initialize:
   551                           	callstack 119
   552   0017EA                     
   553                           ;mcc_generated_files/uart/src/uart2.c: 120:     PIE8bits.U2RXIE = 0;
   554   0017EA  90AF               	bcf	175,0,c	;volatile
   555   0017EC                     
   556                           ;mcc_generated_files/uart/src/uart2.c: 121:     UART2_RxInterruptHandler = UART2_Receive
      +                          ISR;
   557   0017EC  0E32               	movlw	low _UART2_ReceiveISR
   558   0017EE  6E42               	movwf	_UART2_RxInterruptHandler^(0+1280),c
   559   0017F0  0E15               	movlw	high _UART2_ReceiveISR
   560   0017F2  6E43               	movwf	(_UART2_RxInterruptHandler+1)^(0+1280),c
   561   0017F4                     
   562                           ;mcc_generated_files/uart/src/uart2.c: 122:     PIE8bits.U2TXIE = 0;
   563   0017F4  92AF               	bcf	175,1,c	;volatile
   564                           
   565                           ;mcc_generated_files/uart/src/uart2.c: 123:     UART2_TxInterruptHandler = UART2_Transmi
      +                          tISR;
   566   0017F6  0ECA               	movlw	low _UART2_TransmitISR
   567   0017F8  6E44               	movwf	_UART2_TxInterruptHandler^(0+1280),c
   568   0017FA  0E18               	movlw	high _UART2_TransmitISR
   569   0017FC  6E45               	movwf	(_UART2_TxInterruptHandler+1)^(0+1280),c
   570   0017FE                     
   571                           ;mcc_generated_files/uart/src/uart2.c: 128:     U2RXB = 0x0;
   572   0017FE  0E00               	movlw	0
   573   001800  0102               	movlb	2	; () banked
   574   001802  6FB4               	movwf	180,b	;volatile
   575   001804                     
   576                           ; BSR set to: 2
   577                           ;mcc_generated_files/uart/src/uart2.c: 130:     U2TXB = 0x0;
   578   001804  0E00               	movlw	0
   579   001806  6FB6               	movwf	182,b	;volatile
   580   001808                     
   581                           ; BSR set to: 2
   582                           ;mcc_generated_files/uart/src/uart2.c: 132:     U2P1L = 0x0;
   583   001808  0E00               	movlw	0
   584   00180A  6FB8               	movwf	184,b	;volatile
   585   00180C                     
   586                           ; BSR set to: 2
   587                           ;mcc_generated_files/uart/src/uart2.c: 134:     U2P2L = 0x0;
   588   00180C  0E00               	movlw	0
   589   00180E  6FBA               	movwf	186,b	;volatile
   590   001810                     
   591                           ; BSR set to: 2
   592                           ;mcc_generated_files/uart/src/uart2.c: 136:     U2P3L = 0x0;
   593   001810  0E00               	movlw	0
   594   001812  6FBC               	movwf	188,b	;volatile
   595   001814                     
   596                           ; BSR set to: 2
   597                           ;mcc_generated_files/uart/src/uart2.c: 138:     U2CON0 = 0xB0;
   598   001814  0EB0               	movlw	176
   599   001816  6FBE               	movwf	190,b	;volatile
   600   001818                     
   601                           ; BSR set to: 2
   602                           ;mcc_generated_files/uart/src/uart2.c: 140:     U2CON1 = 0x80;
   603   001818  0E80               	movlw	128
   604   00181A  6FBF               	movwf	191,b	;volatile
   605   00181C                     
   606                           ; BSR set to: 2
   607                           ;mcc_generated_files/uart/src/uart2.c: 142:     U2CON2 = 0x0;
   608   00181C  0E00               	movlw	0
   609   00181E  6FC0               	movwf	192,b	;volatile
   610   001820                     
   611                           ; BSR set to: 2
   612                           ;mcc_generated_files/uart/src/uart2.c: 144:     U2BRGL = 0x19;
   613   001820  0E19               	movlw	25
   614   001822  6FC1               	movwf	193,b	;volatile
   615   001824                     
   616                           ; BSR set to: 2
   617                           ;mcc_generated_files/uart/src/uart2.c: 146:     U2BRGH = 0x0;
   618   001824  0E00               	movlw	0
   619   001826  6FC2               	movwf	194,b	;volatile
   620   001828                     
   621                           ; BSR set to: 2
   622                           ;mcc_generated_files/uart/src/uart2.c: 148:     U2FIFO = 0x2E;
   623   001828  0E2E               	movlw	46
   624   00182A  6FC3               	movwf	195,b	;volatile
   625   00182C                     
   626                           ; BSR set to: 2
   627                           ;mcc_generated_files/uart/src/uart2.c: 150:     U2UIR = 0x0;
   628   00182C  0E00               	movlw	0
   629   00182E  6FC4               	movwf	196,b	;volatile
   630   001830                     
   631                           ; BSR set to: 2
   632                           ;mcc_generated_files/uart/src/uart2.c: 152:     U2ERRIR = 0x80;
   633   001830  0E80               	movlw	128
   634   001832  6FC5               	movwf	197,b	;volatile
   635   001834                     
   636                           ; BSR set to: 2
   637                           ;mcc_generated_files/uart/src/uart2.c: 154:     U2ERRIE = 0x0;
   638   001834  0E00               	movlw	0
   639   001836  6FC6               	movwf	198,b	;volatile
   640   001838                     
   641                           ; BSR set to: 2
   642                           ;mcc_generated_files/uart/src/uart2.c: 156:     UART2_FramingErrorCallbackRegister(UART2
      +                          _DefaultFramingErrorCallback);
   643   001838  0E62               	movlw	low _UART2_DefaultFramingErrorCallback
   644   00183A  6E3E               	movwf	UART2_FramingErrorCallbackRegister@callbackHandler^(0+1280),c
   645   00183C  0E1A               	movlw	high _UART2_DefaultFramingErrorCallback
   646   00183E  6E3F               	movwf	(UART2_FramingErrorCallbackRegister@callbackHandler+1)^(0+1280),c
   647   001840  ECEF  F00C         	call	_UART2_FramingErrorCallbackRegister	;wreg free
   648   001844                     
   649                           ;mcc_generated_files/uart/src/uart2.c: 157:     UART2_OverrunErrorCallbackRegister(UART2
      +                          _DefaultOverrunErrorCallback);
   650   001844  0E60               	movlw	low _UART2_DefaultOverrunErrorCallback
   651   001846  6E3E               	movwf	UART2_OverrunErrorCallbackRegister@callbackHandler^(0+1280),c
   652   001848  0E1A               	movlw	high _UART2_DefaultOverrunErrorCallback
   653   00184A  6E3F               	movwf	(UART2_OverrunErrorCallbackRegister@callbackHandler+1)^(0+1280),c
   654   00184C  ECE1  F00C         	call	_UART2_OverrunErrorCallbackRegister	;wreg free
   655   001850                     
   656                           ;mcc_generated_files/uart/src/uart2.c: 158:     UART2_ParityErrorCallbackRegister(UART2_
      +                          DefaultParityErrorCallback);
   657   001850  0E00               	movlw	0
   658   001852  6E3E               	movwf	UART2_ParityErrorCallbackRegister@callbackHandler^(0+1280),c
   659   001854  0E00               	movlw	0
   660   001856  6E3F               	movwf	(UART2_ParityErrorCallbackRegister@callbackHandler+1)^(0+1280),c
   661   001858  ECD3  F00C         	call	_UART2_ParityErrorCallbackRegister	;wreg free
   662   00185C                     
   663                           ;mcc_generated_files/uart/src/uart2.c: 160:     uart2RxLastError.status = 0;
   664   00185C  0E00               	movlw	0
   665   00185E  6E2C               	movwf	(_uart2RxLastError+1)^(0+1280),c	;volatile
   666   001860  0E00               	movlw	0
   667   001862  6E2B               	movwf	_uart2RxLastError^(0+1280),c	;volatile
   668   001864                     
   669                           ;mcc_generated_files/uart/src/uart2.c: 161:     uart2TxHead = 0;
   670   001864  0E00               	movlw	0
   671   001866  6E38               	movwf	_uart2TxHead^(0+1280),c	;volatile
   672   001868                     
   673                           ;mcc_generated_files/uart/src/uart2.c: 162:     uart2TxTail = 0;
   674   001868  0E00               	movlw	0
   675   00186A  6E37               	movwf	_uart2TxTail^(0+1280),c	;volatile
   676   00186C                     
   677                           ;mcc_generated_files/uart/src/uart2.c: 163:     uart2TxBufferRemaining = sizeof(uart2TxB
      +                          uffer);
   678   00186C  0E08               	movlw	8
   679   00186E  6E36               	movwf	_uart2TxBufferRemaining^(0+1280),c	;volatile
   680   001870                     
   681                           ;mcc_generated_files/uart/src/uart2.c: 164:     uart2RxHead = 0;
   682   001870  0E00               	movlw	0
   683   001872  6E35               	movwf	_uart2RxHead^(0+1280),c	;volatile
   684   001874                     
   685                           ;mcc_generated_files/uart/src/uart2.c: 165:     uart2RxTail = 0;
   686   001874  0E00               	movlw	0
   687   001876  6E34               	movwf	_uart2RxTail^(0+1280),c	;volatile
   688   001878                     
   689                           ;mcc_generated_files/uart/src/uart2.c: 166:     uart2RxCount = 0;
   690   001878  0E00               	movlw	0
   691   00187A  6E33               	movwf	_uart2RxCount^(0+1280),c	;volatile
   692   00187C                     
   693                           ;mcc_generated_files/uart/src/uart2.c: 167:     PIE8bits.U2RXIE = 1;
   694   00187C  80AF               	bsf	175,0,c	;volatile
   695   00187E  0012               	return		;funcret
   696   001880                     __end_of_UART2_Initialize:
   697                           	callstack 0
   698                           
   699 ;; *************** function _UART2_ParityErrorCallbackRegister *****************
   700 ;; Defined at:
   701 ;;		line 449 in file "mcc_generated_files/uart/src/uart2.c"
   702 ;; Parameters:    Size  Location     Type
   703 ;;  callbackHand    2    5[COMRAM] PTR FTN()void 
   704 ;;		 -> UART2_DefaultParityErrorCallback(1), 
   705 ;; Auto vars:     Size  Location     Type
   706 ;;		None
   707 ;; Return value:  Size  Location     Type
   708 ;;                  1    wreg      void 
   709 ;; Registers used:
   710 ;;		wreg, status,2, status,0
   711 ;; Tracked objects:
   712 ;;		On entry : 0/0
   713 ;;		On exit  : 0/0
   714 ;;		Unchanged: 0/0
   715 ;; Data sizes:     COMRAM   BANK5   BANK6   BANK7   BANK8   BANK9  BANK10  BANK11  BANK12  BANK13  BANK14  BANK15  BANK1
      +6  BANK17  BANK18  BANK19  BANK20
   716 ;;      Params:         2       0       0       0       0       0       0       0       0       0       0       0       
      +0       0       0       0       0
   717 ;;      Locals:         0       0       0       0       0       0       0       0       0       0       0       0       
      +0       0       0       0       0
   718 ;;      Temps:          0       0       0       0       0       0       0       0       0       0       0       0       
      +0       0       0       0       0
   719 ;;      Totals:         2       0       0       0       0       0       0       0       0       0       0       0       
      +0       0       0       0       0
   720 ;;Total ram usage:        2 bytes
   721 ;; Hardware stack levels used: 1
   722 ;; Hardware stack levels required when called: 5
   723 ;; This function calls:
   724 ;;		Nothing
   725 ;; This function is called by:
   726 ;;		_UART2_Initialize
   727 ;; This function uses a non-reentrant model
   728 ;;
   729                           
   730                           	psect	text3
   731   0019A6                     __ptext3:
   732                           	callstack 0
   733   0019A6                     _UART2_ParityErrorCallbackRegister:
   734                           	callstack 119
   735   0019A6                     
   736                           ;mcc_generated_files/uart/src/uart2.c: 449: void UART2_ParityErrorCallbackRegister(void 
      +                          (* callbackHandler)(void));mcc_generated_files/uart/src/uart2.c: 450: {;mcc_generated_fi
      +                          les/uart/src/uart2.c: 451:     if(((void*)0) != callbackHandler)
   737   0019A6  503E               	movf	UART2_ParityErrorCallbackRegister@callbackHandler^(0+1280),w,c
   738   0019A8  103F               	iorwf	(UART2_ParityErrorCallbackRegister@callbackHandler+1)^(0+1280),w,c
   739   0019AA  B4D8               	btfsc	status,2,c
   740   0019AC  EFDA  F00C         	goto	u391
   741   0019B0  EFDC  F00C         	goto	u390
   742   0019B4                     u391:
   743   0019B4  EFE0  F00C         	goto	l538
   744   0019B8                     u390:
   745   0019B8                     
   746                           ;mcc_generated_files/uart/src/uart2.c: 452:     {;mcc_generated_files/uart/src/uart2.c: 
      +                          453:         UART2_ParityErrorHandler = callbackHandler;
   747   0019B8  C53E  F525         	movff	UART2_ParityErrorCallbackRegister@callbackHandler,_UART2_ParityErrorHandler
   748   0019BC  C53F  F526         	movff	UART2_ParityErrorCallbackRegister@callbackHandler+1,_UART2_ParityErrorHandler+1
   749   0019C0                     l538:
   750   0019C0  0012               	return		;funcret
   751   0019C2                     __end_of_UART2_ParityErrorCallbackRegister:
   752                           	callstack 0
   753                           
   754 ;; *************** function _UART2_OverrunErrorCallbackRegister *****************
   755 ;; Defined at:
   756 ;;		line 441 in file "mcc_generated_files/uart/src/uart2.c"
   757 ;; Parameters:    Size  Location     Type
   758 ;;  callbackHand    2    5[COMRAM] PTR FTN()void 
   759 ;;		 -> UART2_DefaultOverrunErrorCallback(1), 
   760 ;; Auto vars:     Size  Location     Type
   761 ;;		None
   762 ;; Return value:  Size  Location     Type
   763 ;;                  1    wreg      void 
   764 ;; Registers used:
   765 ;;		wreg, status,2, status,0
   766 ;; Tracked objects:
   767 ;;		On entry : 0/0
   768 ;;		On exit  : 0/0
   769 ;;		Unchanged: 0/0
   770 ;; Data sizes:     COMRAM   BANK5   BANK6   BANK7   BANK8   BANK9  BANK10  BANK11  BANK12  BANK13  BANK14  BANK15  BANK1
      +6  BANK17  BANK18  BANK19  BANK20
   771 ;;      Params:         2       0       0       0       0       0       0       0       0       0       0       0       
      +0       0       0       0       0
   772 ;;      Locals:         0       0       0       0       0       0       0       0       0       0       0       0       
      +0       0       0       0       0
   773 ;;      Temps:          0       0       0       0       0       0       0       0       0       0       0       0       
      +0       0       0       0       0
   774 ;;      Totals:         2       0       0       0       0       0       0       0       0       0       0       0       
      +0       0       0       0       0
   775 ;;Total ram usage:        2 bytes
   776 ;; Hardware stack levels used: 1
   777 ;; Hardware stack levels required when called: 5
   778 ;; This function calls:
   779 ;;		Nothing
   780 ;; This function is called by:
   781 ;;		_UART2_Initialize
   782 ;; This function uses a non-reentrant model
   783 ;;
   784                           
   785                           	psect	text4
   786   0019C2                     __ptext4:
   787                           	callstack 0
   788   0019C2                     _UART2_OverrunErrorCallbackRegister:
   789                           	callstack 119
   790   0019C2                     
   791                           ;mcc_generated_files/uart/src/uart2.c: 441: void UART2_OverrunErrorCallbackRegister(void
      +                           (* callbackHandler)(void));mcc_generated_files/uart/src/uart2.c: 442: {;mcc_generated_f
      +                          iles/uart/src/uart2.c: 443:     if(((void*)0) != callbackHandler)
   792   0019C2  503E               	movf	UART2_OverrunErrorCallbackRegister@callbackHandler^(0+1280),w,c
   793   0019C4  103F               	iorwf	(UART2_OverrunErrorCallbackRegister@callbackHandler+1)^(0+1280),w,c
   794   0019C6  B4D8               	btfsc	status,2,c
   795   0019C8  EFE8  F00C         	goto	u381
   796   0019CC  EFEA  F00C         	goto	u380
   797   0019D0                     u381:
   798   0019D0  EFEE  F00C         	goto	l534
   799   0019D4                     u380:
   800   0019D4                     
   801                           ;mcc_generated_files/uart/src/uart2.c: 444:     {;mcc_generated_files/uart/src/uart2.c: 
      +                          445:         UART2_OverrunErrorHandler = callbackHandler;
   802   0019D4  C53E  F527         	movff	UART2_OverrunErrorCallbackRegister@callbackHandler,_UART2_OverrunErrorHandler
   803   0019D8  C53F  F528         	movff	UART2_OverrunErrorCallbackRegister@callbackHandler+1,_UART2_OverrunErrorHandler+1
   804   0019DC                     l534:
   805   0019DC  0012               	return		;funcret
   806   0019DE                     __end_of_UART2_OverrunErrorCallbackRegister:
   807                           	callstack 0
   808                           
   809 ;; *************** function _UART2_FramingErrorCallbackRegister *****************
   810 ;; Defined at:
   811 ;;		line 433 in file "mcc_generated_files/uart/src/uart2.c"
   812 ;; Parameters:    Size  Location     Type
   813 ;;  callbackHand    2    5[COMRAM] PTR FTN()void 
   814 ;;		 -> UART2_DefaultFramingErrorCallback(1), 
   815 ;; Auto vars:     Size  Location     Type
   816 ;;		None
   817 ;; Return value:  Size  Location     Type
   818 ;;                  1    wreg      void 
   819 ;; Registers used:
   820 ;;		wreg, status,2, status,0
   821 ;; Tracked objects:
   822 ;;		On entry : 0/0
   823 ;;		On exit  : 0/0
   824 ;;		Unchanged: 0/0
   825 ;; Data sizes:     COMRAM   BANK5   BANK6   BANK7   BANK8   BANK9  BANK10  BANK11  BANK12  BANK13  BANK14  BANK15  BANK1
      +6  BANK17  BANK18  BANK19  BANK20
   826 ;;      Params:         2       0       0       0       0       0       0       0       0       0       0       0       
      +0       0       0       0       0
   827 ;;      Locals:         0       0       0       0       0       0       0       0       0       0       0       0       
      +0       0       0       0       0
   828 ;;      Temps:          0       0       0       0       0       0       0       0       0       0       0       0       
      +0       0       0       0       0
   829 ;;      Totals:         2       0       0       0       0       0       0       0       0       0       0       0       
      +0       0       0       0       0
   830 ;;Total ram usage:        2 bytes
   831 ;; Hardware stack levels used: 1
   832 ;; Hardware stack levels required when called: 5
   833 ;; This function calls:
   834 ;;		Nothing
   835 ;; This function is called by:
   836 ;;		_UART2_Initialize
   837 ;; This function uses a non-reentrant model
   838 ;;
   839                           
   840                           	psect	text5
   841   0019DE                     __ptext5:
   842                           	callstack 0
   843   0019DE                     _UART2_FramingErrorCallbackRegister:
   844                           	callstack 119
   845   0019DE                     
   846                           ;mcc_generated_files/uart/src/uart2.c: 433: void UART2_FramingErrorCallbackRegister(void
      +                           (* callbackHandler)(void));mcc_generated_files/uart/src/uart2.c: 434: {;mcc_generated_f
      +                          iles/uart/src/uart2.c: 435:     if(((void*)0) != callbackHandler)
   847   0019DE  503E               	movf	UART2_FramingErrorCallbackRegister@callbackHandler^(0+1280),w,c
   848   0019E0  103F               	iorwf	(UART2_FramingErrorCallbackRegister@callbackHandler+1)^(0+1280),w,c
   849   0019E2  B4D8               	btfsc	status,2,c
   850   0019E4  EFF6  F00C         	goto	u371
   851   0019E8  EFF8  F00C         	goto	u370
   852   0019EC                     u371:
   853   0019EC  EFFC  F00C         	goto	l530
   854   0019F0                     u370:
   855   0019F0                     
   856                           ;mcc_generated_files/uart/src/uart2.c: 436:     {;mcc_generated_files/uart/src/uart2.c: 
      +                          437:         UART2_FramingErrorHandler = callbackHandler;
   857   0019F0  C53E  F529         	movff	UART2_FramingErrorCallbackRegister@callbackHandler,_UART2_FramingErrorHandler
   858   0019F4  C53F  F52A         	movff	UART2_FramingErrorCallbackRegister@callbackHandler+1,_UART2_FramingErrorHandler+1
   859   0019F8                     l530:
   860   0019F8  0012               	return		;funcret
   861   0019FA                     __end_of_UART2_FramingErrorCallbackRegister:
   862                           	callstack 0
   863                           
   864 ;; *************** function _PIN_MANAGER_Initialize *****************
   865 ;; Defined at:
   866 ;;		line 40 in file "mcc_generated_files/system/src/pins.c"
   867 ;; Parameters:    Size  Location     Type
   868 ;;		None
   869 ;; Auto vars:     Size  Location     Type
   870 ;;		None
   871 ;; Return value:  Size  Location     Type
   872 ;;                  1    wreg      void 
   873 ;; Registers used:
   874 ;;		wreg, status,2, status,0, cstack
   875 ;; Tracked objects:
   876 ;;		On entry : 0/0
   877 ;;		On exit  : 0/0
   878 ;;		Unchanged: 0/0
   879 ;; Data sizes:     COMRAM   BANK5   BANK6   BANK7   BANK8   BANK9  BANK10  BANK11  BANK12  BANK13  BANK14  BANK15  BANK1
      +6  BANK17  BANK18  BANK19  BANK20
   880 ;;      Params:         0       0       0       0       0       0       0       0       0       0       0       0       
      +0       0       0       0       0
   881 ;;      Locals:         0       0       0       0       0       0       0       0       0       0       0       0       
      +0       0       0       0       0
   882 ;;      Temps:          0       0       0       0       0       0       0       0       0       0       0       0       
      +0       0       0       0       0
   883 ;;      Totals:         0       0       0       0       0       0       0       0       0       0       0       0       
      +0       0       0       0       0
   884 ;;Total ram usage:        0 bytes
   885 ;; Hardware stack levels used: 1
   886 ;; Hardware stack levels required when called: 6
   887 ;; This function calls:
   888 ;;		_SW0_SetInterruptHandler
   889 ;; This function is called by:
   890 ;;		_SYSTEM_Initialize
   891 ;; This function uses a non-reentrant model
   892 ;;
   893                           
   894                           	psect	text6
   895   00164E                     __ptext6:
   896                           	callstack 0
   897   00164E                     _PIN_MANAGER_Initialize:
   898                           	callstack 119
   899   00164E                     
   900                           ;mcc_generated_files/system/src/pins.c: 45:     LATA = 0x0;
   901   00164E  0E00               	movlw	0
   902   001650  0101               	movlb	1	; () banked
   903   001652  6F40               	movwf	64,b	;volatile
   904                           
   905                           ;mcc_generated_files/system/src/pins.c: 46:     LATB = 0x0;
   906   001654  0E00               	movlw	0
   907   001656  6F41               	movwf	65,b	;volatile
   908                           
   909                           ;mcc_generated_files/system/src/pins.c: 47:     LATC = 0x0;
   910   001658  0E00               	movlw	0
   911   00165A  6F42               	movwf	66,b	;volatile
   912                           
   913                           ;mcc_generated_files/system/src/pins.c: 48:     LATD = 0x0;
   914   00165C  0E00               	movlw	0
   915   00165E  6F43               	movwf	67,b	;volatile
   916                           
   917                           ;mcc_generated_files/system/src/pins.c: 49:     LATE = 0x0;
   918   001660  0E00               	movlw	0
   919   001662  6F44               	movwf	68,b	;volatile
   920                           
   921                           ;mcc_generated_files/system/src/pins.c: 50:     LATF = 0x0;
   922   001664  0E00               	movlw	0
   923   001666  6F45               	movwf	69,b	;volatile
   924   001668                     
   925                           ; BSR set to: 1
   926                           ;mcc_generated_files/system/src/pins.c: 55:     TRISA = 0xFF;
   927   001668  6948               	setf	72,b	;volatile
   928                           
   929                           ;mcc_generated_files/system/src/pins.c: 56:     TRISB = 0xEF;
   930   00166A  0EEF               	movlw	239
   931   00166C  6F49               	movwf	73,b	;volatile
   932                           
   933                           ;mcc_generated_files/system/src/pins.c: 57:     TRISC = 0x7F;
   934   00166E  0E7F               	movlw	127
   935   001670  6F4A               	movwf	74,b	;volatile
   936   001672                     
   937                           ; BSR set to: 1
   938                           ;mcc_generated_files/system/src/pins.c: 58:     TRISD = 0xFF;
   939   001672  694B               	setf	75,b	;volatile
   940                           
   941                           ;mcc_generated_files/system/src/pins.c: 59:     TRISE = 0xF;
   942   001674  0E0F               	movlw	15
   943   001676  6F4C               	movwf	76,b	;volatile
   944   001678                     
   945                           ; BSR set to: 1
   946                           ;mcc_generated_files/system/src/pins.c: 60:     TRISF = 0xFF;
   947   001678  694D               	setf	77,b	;volatile
   948                           
   949                           ;mcc_generated_files/system/src/pins.c: 65:     ANSELA = 0xFE;
   950   00167A  0EFE               	movlw	254
   951   00167C  0104               	movlb	4	; () banked
   952   00167E  6F00               	movwf	0,b	;volatile
   953                           
   954                           ;mcc_generated_files/system/src/pins.c: 66:     ANSELB = 0xCF;
   955   001680  0ECF               	movlw	207
   956   001682  6F08               	movwf	8,b	;volatile
   957                           
   958                           ;mcc_generated_files/system/src/pins.c: 67:     ANSELC = 0x7F;
   959   001684  0E7F               	movlw	127
   960   001686  6F10               	movwf	16,b	;volatile
   961   001688                     
   962                           ; BSR set to: 4
   963                           ;mcc_generated_files/system/src/pins.c: 68:     ANSELD = 0xFF;
   964   001688  6918               	setf	24,b	;volatile
   965                           
   966                           ;mcc_generated_files/system/src/pins.c: 69:     ANSELE = 0x7;
   967   00168A  0E07               	movlw	7
   968   00168C  6F20               	movwf	32,b	;volatile
   969   00168E                     
   970                           ; BSR set to: 4
   971                           ;mcc_generated_files/system/src/pins.c: 70:     ANSELF = 0xFF;
   972   00168E  6928               	setf	40,b	;volatile
   973                           
   974                           ;mcc_generated_files/system/src/pins.c: 75:     WPUA = 0x1;
   975   001690  0E01               	movlw	1
   976   001692  6F01               	movwf	1,b	;volatile
   977                           
   978                           ;mcc_generated_files/system/src/pins.c: 76:     WPUB = 0x0;
   979   001694  0E00               	movlw	0
   980   001696  6F09               	movwf	9,b	;volatile
   981                           
   982                           ;mcc_generated_files/system/src/pins.c: 77:     WPUC = 0x0;
   983   001698  0E00               	movlw	0
   984   00169A  6F11               	movwf	17,b	;volatile
   985                           
   986                           ;mcc_generated_files/system/src/pins.c: 78:     WPUD = 0x0;
   987   00169C  0E00               	movlw	0
   988   00169E  6F19               	movwf	25,b	;volatile
   989                           
   990                           ;mcc_generated_files/system/src/pins.c: 79:     WPUE = 0x0;
   991   0016A0  0E00               	movlw	0
   992   0016A2  6F21               	movwf	33,b	;volatile
   993                           
   994                           ;mcc_generated_files/system/src/pins.c: 80:     WPUF = 0x0;
   995   0016A4  0E00               	movlw	0
   996   0016A6  6F29               	movwf	41,b	;volatile
   997                           
   998                           ;mcc_generated_files/system/src/pins.c: 85:     ODCONA = 0x0;
   999   0016A8  0E00               	movlw	0
  1000   0016AA  6F02               	movwf	2,b	;volatile
  1001                           
  1002                           ;mcc_generated_files/system/src/pins.c: 86:     ODCONB = 0x0;
  1003   0016AC  0E00               	movlw	0
  1004   0016AE  6F0A               	movwf	10,b	;volatile
  1005                           
  1006                           ;mcc_generated_files/system/src/pins.c: 87:     ODCONC = 0x0;
  1007   0016B0  0E00               	movlw	0
  1008   0016B2  6F12               	movwf	18,b	;volatile
  1009                           
  1010                           ;mcc_generated_files/system/src/pins.c: 88:     ODCOND = 0x0;
  1011   0016B4  0E00               	movlw	0
  1012   0016B6  6F1A               	movwf	26,b	;volatile
  1013                           
  1014                           ;mcc_generated_files/system/src/pins.c: 89:     ODCONE = 0x0;
  1015   0016B8  0E00               	movlw	0
  1016   0016BA  6F22               	movwf	34,b	;volatile
  1017                           
  1018                           ;mcc_generated_files/system/src/pins.c: 90:     ODCONF = 0x0;
  1019   0016BC  0E00               	movlw	0
  1020   0016BE  6F2A               	movwf	42,b	;volatile
  1021   0016C0                     
  1022                           ; BSR set to: 4
  1023                           ;mcc_generated_files/system/src/pins.c: 95:     SLRCONA = 0xFF;
  1024   0016C0  6903               	setf	3,b	;volatile
  1025   0016C2                     
  1026                           ; BSR set to: 4
  1027                           ;mcc_generated_files/system/src/pins.c: 96:     SLRCONB = 0xFF;
  1028   0016C2  690B               	setf	11,b	;volatile
  1029   0016C4                     
  1030                           ; BSR set to: 4
  1031                           ;mcc_generated_files/system/src/pins.c: 97:     SLRCONC = 0xFF;
  1032   0016C4  6913               	setf	19,b	;volatile
  1033   0016C6                     
  1034                           ; BSR set to: 4
  1035                           ;mcc_generated_files/system/src/pins.c: 98:     SLRCOND = 0xFF;
  1036   0016C6  691B               	setf	27,b	;volatile
  1037                           
  1038                           ;mcc_generated_files/system/src/pins.c: 99:     SLRCONE = 0x7;
  1039   0016C8  0E07               	movlw	7
  1040   0016CA  6F23               	movwf	35,b	;volatile
  1041   0016CC                     
  1042                           ; BSR set to: 4
  1043                           ;mcc_generated_files/system/src/pins.c: 100:     SLRCONF = 0xFF;
  1044   0016CC  692B               	setf	43,b	;volatile
  1045   0016CE                     
  1046                           ; BSR set to: 4
  1047                           ;mcc_generated_files/system/src/pins.c: 105:     INLVLA = 0xFF;
  1048   0016CE  6904               	setf	4,b	;volatile
  1049   0016D0                     
  1050                           ; BSR set to: 4
  1051                           ;mcc_generated_files/system/src/pins.c: 106:     INLVLB = 0xFF;
  1052   0016D0  690C               	setf	12,b	;volatile
  1053   0016D2                     
  1054                           ; BSR set to: 4
  1055                           ;mcc_generated_files/system/src/pins.c: 107:     INLVLC = 0xFF;
  1056   0016D2  6914               	setf	20,b	;volatile
  1057   0016D4                     
  1058                           ; BSR set to: 4
  1059                           ;mcc_generated_files/system/src/pins.c: 108:     INLVLD = 0xFF;
  1060   0016D4  691C               	setf	28,b	;volatile
  1061                           
  1062                           ;mcc_generated_files/system/src/pins.c: 109:     INLVLE = 0xF;
  1063   0016D6  0E0F               	movlw	15
  1064   0016D8  6F24               	movwf	36,b	;volatile
  1065   0016DA                     
  1066                           ; BSR set to: 4
  1067                           ;mcc_generated_files/system/src/pins.c: 110:     INLVLF = 0xFF;
  1068   0016DA  692C               	setf	44,b	;volatile
  1069                           
  1070                           ;mcc_generated_files/system/src/pins.c: 115:     RB1I2C = 0x0;
  1071   0016DC  0E00               	movlw	0
  1072   0016DE  0102               	movlb	2	; () banked
  1073   0016E0  6F86               	movwf	134,b	;volatile
  1074                           
  1075                           ;mcc_generated_files/system/src/pins.c: 116:     RB2I2C = 0x0;
  1076   0016E2  0E00               	movlw	0
  1077   0016E4  6F85               	movwf	133,b	;volatile
  1078                           
  1079                           ;mcc_generated_files/system/src/pins.c: 117:     RC3I2C = 0x0;
  1080   0016E6  0E00               	movlw	0
  1081   0016E8  6F88               	movwf	136,b	;volatile
  1082                           
  1083                           ;mcc_generated_files/system/src/pins.c: 118:     RC4I2C = 0x0;
  1084   0016EA  0E00               	movlw	0
  1085   0016EC  6F87               	movwf	135,b	;volatile
  1086                           
  1087                           ;mcc_generated_files/system/src/pins.c: 122:     U2RXPPS = 0xD;
  1088   0016EE  0E0D               	movlw	13
  1089   0016F0  6F74               	movwf	116,b	;volatile
  1090                           
  1091                           ;mcc_generated_files/system/src/pins.c: 123:     RB4PPS = 0x18;
  1092   0016F2  0E18               	movlw	24
  1093   0016F4  6F0D               	movwf	13,b	;volatile
  1094                           
  1095                           ;mcc_generated_files/system/src/pins.c: 128:     IOCAP = 0x0;
  1096   0016F6  0E00               	movlw	0
  1097   0016F8  0104               	movlb	4	; () banked
  1098   0016FA  6F05               	movwf	5,b	;volatile
  1099                           
  1100                           ;mcc_generated_files/system/src/pins.c: 129:     IOCAN = 0x1;
  1101   0016FC  0E01               	movlw	1
  1102   0016FE  6F06               	movwf	6,b	;volatile
  1103                           
  1104                           ;mcc_generated_files/system/src/pins.c: 130:     IOCAF = 0x0;
  1105   001700  0E00               	movlw	0
  1106   001702  6F07               	movwf	7,b	;volatile
  1107                           
  1108                           ;mcc_generated_files/system/src/pins.c: 131:     IOCWP = 0x0;
  1109   001704  0E00               	movlw	0
  1110   001706  6F3D               	movwf	61,b	;volatile
  1111                           
  1112                           ;mcc_generated_files/system/src/pins.c: 132:     IOCWN = 0x0;
  1113   001708  0E00               	movlw	0
  1114   00170A  6F3E               	movwf	62,b	;volatile
  1115                           
  1116                           ;mcc_generated_files/system/src/pins.c: 133:     IOCWF = 0x0;
  1117   00170C  0E00               	movlw	0
  1118   00170E  6F3F               	movwf	63,b	;volatile
  1119                           
  1120                           ;mcc_generated_files/system/src/pins.c: 134:     IOCBP = 0x0;
  1121   001710  0E00               	movlw	0
  1122   001712  6F0D               	movwf	13,b	;volatile
  1123                           
  1124                           ;mcc_generated_files/system/src/pins.c: 135:     IOCBN = 0x0;
  1125   001714  0E00               	movlw	0
  1126   001716  6F0E               	movwf	14,b	;volatile
  1127                           
  1128                           ;mcc_generated_files/system/src/pins.c: 136:     IOCBF = 0x0;
  1129   001718  0E00               	movlw	0
  1130   00171A  6F0F               	movwf	15,b	;volatile
  1131                           
  1132                           ;mcc_generated_files/system/src/pins.c: 137:     IOCCP = 0x0;
  1133   00171C  0E00               	movlw	0
  1134   00171E  6F15               	movwf	21,b	;volatile
  1135                           
  1136                           ;mcc_generated_files/system/src/pins.c: 138:     IOCCN = 0x0;
  1137   001720  0E00               	movlw	0
  1138   001722  6F16               	movwf	22,b	;volatile
  1139                           
  1140                           ;mcc_generated_files/system/src/pins.c: 139:     IOCCF = 0x0;
  1141   001724  0E00               	movlw	0
  1142   001726  6F17               	movwf	23,b	;volatile
  1143                           
  1144                           ;mcc_generated_files/system/src/pins.c: 140:     IOCEP = 0x0;
  1145   001728  0E00               	movlw	0
  1146   00172A  6F25               	movwf	37,b	;volatile
  1147                           
  1148                           ;mcc_generated_files/system/src/pins.c: 141:     IOCEN = 0x0;
  1149   00172C  0E00               	movlw	0
  1150   00172E  6F26               	movwf	38,b	;volatile
  1151                           
  1152                           ;mcc_generated_files/system/src/pins.c: 142:     IOCEF = 0x0;
  1153   001730  0E00               	movlw	0
  1154   001732  6F27               	movwf	39,b	;volatile
  1155   001734                     
  1156                           ; BSR set to: 4
  1157                           ;mcc_generated_files/system/src/pins.c: 144:     SW0_SetInterruptHandler(SW0_DefaultInte
      +                          rruptHandler);
  1158   001734  0E58               	movlw	low _SW0_DefaultInterruptHandler
  1159   001736  6E3E               	movwf	SW0_SetInterruptHandler@InterruptHandler^(0+1280),c
  1160   001738  0E1A               	movlw	high _SW0_DefaultInterruptHandler
  1161   00173A  6E3F               	movwf	(SW0_SetInterruptHandler@InterruptHandler+1)^(0+1280),c
  1162   00173C  EC18  F00D         	call	_SW0_SetInterruptHandler	;wreg free
  1163   001740                     
  1164                           ;mcc_generated_files/system/src/pins.c: 147:     PIE0bits.IOCIE = 1;
  1165   001740  8EA7               	bsf	167,7,c	;volatile
  1166   001742  0012               	return		;funcret
  1167   001744                     __end_of_PIN_MANAGER_Initialize:
  1168                           	callstack 0
  1169                           
  1170 ;; *************** function _SW0_SetInterruptHandler *****************
  1171 ;; Defined at:
  1172 ;;		line 177 in file "mcc_generated_files/system/src/pins.c"
  1173 ;; Parameters:    Size  Location     Type
  1174 ;;  InterruptHan    2    5[COMRAM] PTR FTN()void 
  1175 ;;		 -> SW0_DefaultInterruptHandler(1), 
  1176 ;; Auto vars:     Size  Location     Type
  1177 ;;		None
  1178 ;; Return value:  Size  Location     Type
  1179 ;;                  1    wreg      void 
  1180 ;; Registers used:
  1181 ;;		wreg, status,2, status,0
  1182 ;; Tracked objects:
  1183 ;;		On entry : 0/0
  1184 ;;		On exit  : 0/0
  1185 ;;		Unchanged: 0/0
  1186 ;; Data sizes:     COMRAM   BANK5   BANK6   BANK7   BANK8   BANK9  BANK10  BANK11  BANK12  BANK13  BANK14  BANK15  BANK1
      +6  BANK17  BANK18  BANK19  BANK20
  1187 ;;      Params:         2       0       0       0       0       0       0       0       0       0       0       0       
      +0       0       0       0       0
  1188 ;;      Locals:         0       0       0       0       0       0       0       0       0       0       0       0       
      +0       0       0       0       0
  1189 ;;      Temps:          0       0       0       0       0       0       0       0       0       0       0       0       
      +0       0       0       0       0
  1190 ;;      Totals:         2       0       0       0       0       0       0       0       0       0       0       0       
      +0       0       0       0       0
  1191 ;;Total ram usage:        2 bytes
  1192 ;; Hardware stack levels used: 1
  1193 ;; Hardware stack levels required when called: 5
  1194 ;; This function calls:
  1195 ;;		Nothing
  1196 ;; This function is called by:
  1197 ;;		_PIN_MANAGER_Initialize
  1198 ;; This function uses a non-reentrant model
  1199 ;;
  1200                           
  1201                           	psect	text7
  1202   001A30                     __ptext7:
  1203                           	callstack 0
  1204   001A30                     _SW0_SetInterruptHandler:
  1205                           	callstack 119
  1206   001A30                     
  1207                           ;mcc_generated_files/system/src/pins.c: 178:     SW0_InterruptHandler = InterruptHandler
      +                          ;
  1208   001A30  C53E  F540         	movff	SW0_SetInterruptHandler@InterruptHandler,_SW0_InterruptHandler
  1209   001A34  C53F  F541         	movff	SW0_SetInterruptHandler@InterruptHandler+1,_SW0_InterruptHandler+1
  1210   001A38  0012               	return		;funcret
  1211   001A3A                     __end_of_SW0_SetInterruptHandler:
  1212                           	callstack 0
  1213                           
  1214 ;; *************** function _INTERRUPT_Initialize *****************
  1215 ;; Defined at:
  1216 ;;		line 42 in file "mcc_generated_files/system/src/interrupt.c"
  1217 ;; Parameters:    Size  Location     Type
  1218 ;;		None
  1219 ;; Auto vars:     Size  Location     Type
  1220 ;;		None
  1221 ;; Return value:  Size  Location     Type
  1222 ;;                  1    wreg      void 
  1223 ;; Registers used:
  1224 ;;		wreg, status,2, status,0, cstack
  1225 ;; Tracked objects:
  1226 ;;		On entry : 0/0
  1227 ;;		On exit  : 0/0
  1228 ;;		Unchanged: 0/0
  1229 ;; Data sizes:     COMRAM   BANK5   BANK6   BANK7   BANK8   BANK9  BANK10  BANK11  BANK12  BANK13  BANK14  BANK15  BANK1
      +6  BANK17  BANK18  BANK19  BANK20
  1230 ;;      Params:         0       0       0       0       0       0       0       0       0       0       0       0       
      +0       0       0       0       0
  1231 ;;      Locals:         0       0       0       0       0       0       0       0       0       0       0       0       
      +0       0       0       0       0
  1232 ;;      Temps:          0       0       0       0       0       0       0       0       0       0       0       0       
      +0       0       0       0       0
  1233 ;;      Totals:         0       0       0       0       0       0       0       0       0       0       0       0       
      +0       0       0       0       0
  1234 ;;Total ram usage:        0 bytes
  1235 ;; Hardware stack levels used: 1
  1236 ;; Hardware stack levels required when called: 6
  1237 ;; This function calls:
  1238 ;;		_INT0_SetInterruptHandler
  1239 ;;		_INT1_SetInterruptHandler
  1240 ;;		_INT2_SetInterruptHandler
  1241 ;; This function is called by:
  1242 ;;		_SYSTEM_Initialize
  1243 ;; This function uses a non-reentrant model
  1244 ;;
  1245                           
  1246                           	psect	text8
  1247   001900                     __ptext8:
  1248                           	callstack 0
  1249   001900                     _INTERRUPT_Initialize:
  1250                           	callstack 119
  1251   001900                     
  1252                           ;mcc_generated_files/system/src/interrupt.c: 45:     INTCON0bits.IPEN = 0;
  1253   001900  9AD6               	bcf	214,5,c	;volatile
  1254                           
  1255                           ;mcc_generated_files/system/src/interrupt.c: 49:     (PIR1bits.INT0IF = 0);
  1256   001902  90B3               	bcf	179,0,c	;volatile
  1257                           
  1258                           ;mcc_generated_files/system/src/interrupt.c: 50:     (INTCON0bits.INT0EDG = 1);
  1259   001904  80D6               	bsf	214,0,c	;volatile
  1260   001906                     
  1261                           ;mcc_generated_files/system/src/interrupt.c: 52:     INT0_SetInterruptHandler(INT0_Defau
      +                          ltInterruptHandler);
  1262   001906  0E00               	movlw	0
  1263   001908  6E3E               	movwf	INT0_SetInterruptHandler@InterruptHandler^(0+1280),c
  1264   00190A  0E00               	movlw	0
  1265   00190C  6E3F               	movwf	(INT0_SetInterruptHandler@InterruptHandler+1)^(0+1280),c
  1266   00190E  EC27  F00D         	call	_INT0_SetInterruptHandler	;wreg free
  1267   001912                     
  1268                           ;mcc_generated_files/system/src/interrupt.c: 57:     (PIR6bits.INT1IF = 0);
  1269   001912  90B8               	bcf	184,0,c	;volatile
  1270   001914                     
  1271                           ;mcc_generated_files/system/src/interrupt.c: 58:     (INTCON0bits.INT1EDG = 1);
  1272   001914  82D6               	bsf	214,1,c	;volatile
  1273                           
  1274                           ;mcc_generated_files/system/src/interrupt.c: 60:     INT1_SetInterruptHandler(INT1_Defau
      +                          ltInterruptHandler);
  1275   001916  0E00               	movlw	0
  1276   001918  6E3E               	movwf	INT1_SetInterruptHandler@InterruptHandler^(0+1280),c
  1277   00191A  0E00               	movlw	0
  1278   00191C  6E3F               	movwf	(INT1_SetInterruptHandler@InterruptHandler+1)^(0+1280),c
  1279   00191E  EC22  F00D         	call	_INT1_SetInterruptHandler	;wreg free
  1280   001922                     
  1281                           ;mcc_generated_files/system/src/interrupt.c: 65:     (PIR10bits.INT2IF = 0);
  1282   001922  90BC               	bcf	188,0,c	;volatile
  1283   001924                     
  1284                           ;mcc_generated_files/system/src/interrupt.c: 66:     (INTCON0bits.INT2EDG = 1);
  1285   001924  84D6               	bsf	214,2,c	;volatile
  1286                           
  1287                           ;mcc_generated_files/system/src/interrupt.c: 68:     INT2_SetInterruptHandler(INT2_Defau
      +                          ltInterruptHandler);
  1288   001926  0E00               	movlw	0
  1289   001928  6E3E               	movwf	INT2_SetInterruptHandler@InterruptHandler^(0+1280),c
  1290   00192A  0E00               	movlw	0
  1291   00192C  6E3F               	movwf	(INT2_SetInterruptHandler@InterruptHandler+1)^(0+1280),c
  1292   00192E  EC1D  F00D         	call	_INT2_SetInterruptHandler	;wreg free
  1293   001932  0012               	return		;funcret
  1294   001934                     __end_of_INTERRUPT_Initialize:
  1295                           	callstack 0
  1296                           
  1297 ;; *************** function _INT2_SetInterruptHandler *****************
  1298 ;; Defined at:
  1299 ;;		line 171 in file "mcc_generated_files/system/src/interrupt.c"
  1300 ;; Parameters:    Size  Location     Type
  1301 ;;  InterruptHan    2    5[COMRAM] PTR FTN()void 
  1302 ;;		 -> INT2_DefaultInterruptHandler(1), 
  1303 ;; Auto vars:     Size  Location     Type
  1304 ;;		None
  1305 ;; Return value:  Size  Location     Type
  1306 ;;                  1    wreg      void 
  1307 ;; Registers used:
  1308 ;;		wreg, status,2, status,0
  1309 ;; Tracked objects:
  1310 ;;		On entry : 0/0
  1311 ;;		On exit  : 0/0
  1312 ;;		Unchanged: 0/0
  1313 ;; Data sizes:     COMRAM   BANK5   BANK6   BANK7   BANK8   BANK9  BANK10  BANK11  BANK12  BANK13  BANK14  BANK15  BANK1
      +6  BANK17  BANK18  BANK19  BANK20
  1314 ;;      Params:         2       0       0       0       0       0       0       0       0       0       0       0       
      +0       0       0       0       0
  1315 ;;      Locals:         0       0       0       0       0       0       0       0       0       0       0       0       
      +0       0       0       0       0
  1316 ;;      Temps:          0       0       0       0       0       0       0       0       0       0       0       0       
      +0       0       0       0       0
  1317 ;;      Totals:         2       0       0       0       0       0       0       0       0       0       0       0       
      +0       0       0       0       0
  1318 ;;Total ram usage:        2 bytes
  1319 ;; Hardware stack levels used: 1
  1320 ;; Hardware stack levels required when called: 5
  1321 ;; This function calls:
  1322 ;;		Nothing
  1323 ;; This function is called by:
  1324 ;;		_INTERRUPT_Initialize
  1325 ;; This function uses a non-reentrant model
  1326 ;;
  1327                           
  1328                           	psect	text9
  1329   001A3A                     __ptext9:
  1330                           	callstack 0
  1331   001A3A                     _INT2_SetInterruptHandler:
  1332                           	callstack 119
  1333   001A3A                     
  1334                           ;mcc_generated_files/system/src/interrupt.c: 172:     INT2_InterruptHandler = InterruptH
      +                          andler;
  1335   001A3A  C53E  F52D         	movff	INT2_SetInterruptHandler@InterruptHandler,_INT2_InterruptHandler
  1336   001A3E  C53F  F52E         	movff	INT2_SetInterruptHandler@InterruptHandler+1,_INT2_InterruptHandler+1
  1337   001A42  0012               	return		;funcret
  1338   001A44                     __end_of_INT2_SetInterruptHandler:
  1339                           	callstack 0
  1340                           
  1341 ;; *************** function _INT1_SetInterruptHandler *****************
  1342 ;; Defined at:
  1343 ;;		line 145 in file "mcc_generated_files/system/src/interrupt.c"
  1344 ;; Parameters:    Size  Location     Type
  1345 ;;  InterruptHan    2    5[COMRAM] PTR FTN()void 
  1346 ;;		 -> INT1_DefaultInterruptHandler(1), 
  1347 ;; Auto vars:     Size  Location     Type
  1348 ;;		None
  1349 ;; Return value:  Size  Location     Type
  1350 ;;                  1    wreg      void 
  1351 ;; Registers used:
  1352 ;;		wreg, status,2, status,0
  1353 ;; Tracked objects:
  1354 ;;		On entry : 0/0
  1355 ;;		On exit  : 0/0
  1356 ;;		Unchanged: 0/0
  1357 ;; Data sizes:     COMRAM   BANK5   BANK6   BANK7   BANK8   BANK9  BANK10  BANK11  BANK12  BANK13  BANK14  BANK15  BANK1
      +6  BANK17  BANK18  BANK19  BANK20
  1358 ;;      Params:         2       0       0       0       0       0       0       0       0       0       0       0       
      +0       0       0       0       0
  1359 ;;      Locals:         0       0       0       0       0       0       0       0       0       0       0       0       
      +0       0       0       0       0
  1360 ;;      Temps:          0       0       0       0       0       0       0       0       0       0       0       0       
      +0       0       0       0       0
  1361 ;;      Totals:         2       0       0       0       0       0       0       0       0       0       0       0       
      +0       0       0       0       0
  1362 ;;Total ram usage:        2 bytes
  1363 ;; Hardware stack levels used: 1
  1364 ;; Hardware stack levels required when called: 5
  1365 ;; This function calls:
  1366 ;;		Nothing
  1367 ;; This function is called by:
  1368 ;;		_INTERRUPT_Initialize
  1369 ;; This function uses a non-reentrant model
  1370 ;;
  1371                           
  1372                           	psect	text10
  1373   001A44                     __ptext10:
  1374                           	callstack 0
  1375   001A44                     _INT1_SetInterruptHandler:
  1376                           	callstack 119
  1377   001A44                     
  1378                           ;mcc_generated_files/system/src/interrupt.c: 146:     INT1_InterruptHandler = InterruptH
      +                          andler;
  1379   001A44  C53E  F52F         	movff	INT1_SetInterruptHandler@InterruptHandler,_INT1_InterruptHandler
  1380   001A48  C53F  F530         	movff	INT1_SetInterruptHandler@InterruptHandler+1,_INT1_InterruptHandler+1
  1381   001A4C  0012               	return		;funcret
  1382   001A4E                     __end_of_INT1_SetInterruptHandler:
  1383                           	callstack 0
  1384                           
  1385 ;; *************** function _INT0_SetInterruptHandler *****************
  1386 ;; Defined at:
  1387 ;;		line 119 in file "mcc_generated_files/system/src/interrupt.c"
  1388 ;; Parameters:    Size  Location     Type
  1389 ;;  InterruptHan    2    5[COMRAM] PTR FTN()void 
  1390 ;;		 -> INT0_DefaultInterruptHandler(1), 
  1391 ;; Auto vars:     Size  Location     Type
  1392 ;;		None
  1393 ;; Return value:  Size  Location     Type
  1394 ;;                  1    wreg      void 
  1395 ;; Registers used:
  1396 ;;		wreg, status,2, status,0
  1397 ;; Tracked objects:
  1398 ;;		On entry : 0/0
  1399 ;;		On exit  : 0/0
  1400 ;;		Unchanged: 0/0
  1401 ;; Data sizes:     COMRAM   BANK5   BANK6   BANK7   BANK8   BANK9  BANK10  BANK11  BANK12  BANK13  BANK14  BANK15  BANK1
      +6  BANK17  BANK18  BANK19  BANK20
  1402 ;;      Params:         2       0       0       0       0       0       0       0       0       0       0       0       
      +0       0       0       0       0
  1403 ;;      Locals:         0       0       0       0       0       0       0       0       0       0       0       0       
      +0       0       0       0       0
  1404 ;;      Temps:          0       0       0       0       0       0       0       0       0       0       0       0       
      +0       0       0       0       0
  1405 ;;      Totals:         2       0       0       0       0       0       0       0       0       0       0       0       
      +0       0       0       0       0
  1406 ;;Total ram usage:        2 bytes
  1407 ;; Hardware stack levels used: 1
  1408 ;; Hardware stack levels required when called: 5
  1409 ;; This function calls:
  1410 ;;		Nothing
  1411 ;; This function is called by:
  1412 ;;		_INTERRUPT_Initialize
  1413 ;; This function uses a non-reentrant model
  1414 ;;
  1415                           
  1416                           	psect	text11
  1417   001A4E                     __ptext11:
  1418                           	callstack 0
  1419   001A4E                     _INT0_SetInterruptHandler:
  1420                           	callstack 119
  1421   001A4E                     
  1422                           ;mcc_generated_files/system/src/interrupt.c: 120:     INT0_InterruptHandler = InterruptH
      +                          andler;
  1423   001A4E  C53E  F531         	movff	INT0_SetInterruptHandler@InterruptHandler,_INT0_InterruptHandler
  1424   001A52  C53F  F532         	movff	INT0_SetInterruptHandler@InterruptHandler+1,_INT0_InterruptHandler+1
  1425   001A56  0012               	return		;funcret
  1426   001A58                     __end_of_INT0_SetInterruptHandler:
  1427                           	callstack 0
  1428                           
  1429 ;; *************** function _CLOCK_Initialize *****************
  1430 ;; Defined at:
  1431 ;;		line 37 in file "mcc_generated_files/system/src/clock.c"
  1432 ;; Parameters:    Size  Location     Type
  1433 ;;		None
  1434 ;; Auto vars:     Size  Location     Type
  1435 ;;		None
  1436 ;; Return value:  Size  Location     Type
  1437 ;;                  1    wreg      void 
  1438 ;; Registers used:
  1439 ;;		wreg, status,2
  1440 ;; Tracked objects:
  1441 ;;		On entry : 0/0
  1442 ;;		On exit  : 0/0
  1443 ;;		Unchanged: 0/0
  1444 ;; Data sizes:     COMRAM   BANK5   BANK6   BANK7   BANK8   BANK9  BANK10  BANK11  BANK12  BANK13  BANK14  BANK15  BANK1
      +6  BANK17  BANK18  BANK19  BANK20
  1445 ;;      Params:         0       0       0       0       0       0       0       0       0       0       0       0       
      +0       0       0       0       0
  1446 ;;      Locals:         0       0       0       0       0       0       0       0       0       0       0       0       
      +0       0       0       0       0
  1447 ;;      Temps:          0       0       0       0       0       0       0       0       0       0       0       0       
      +0       0       0       0       0
  1448 ;;      Totals:         0       0       0       0       0       0       0       0       0       0       0       0       
      +0       0       0       0       0
  1449 ;;Total ram usage:        0 bytes
  1450 ;; Hardware stack levels used: 1
  1451 ;; Hardware stack levels required when called: 5
  1452 ;; This function calls:
  1453 ;;		Nothing
  1454 ;; This function is called by:
  1455 ;;		_SYSTEM_Initialize
  1456 ;; This function uses a non-reentrant model
  1457 ;;
  1458                           
  1459                           	psect	text12
  1460   001964                     __ptext12:
  1461                           	callstack 0
  1462   001964                     _CLOCK_Initialize:
  1463                           	callstack 120
  1464   001964                     
  1465                           ;mcc_generated_files/system/src/clock.c: 41:     OSCCON1 = 0x62;
  1466   001964  0E62               	movlw	98
  1467   001966  0100               	movlb	0	; () banked
  1468   001968  6FAD               	movwf	173,b	;volatile
  1469                           
  1470                           ;mcc_generated_files/system/src/clock.c: 43:     OSCCON3 = 0x0;
  1471   00196A  0E00               	movlw	0
  1472   00196C  6FAF               	movwf	175,b	;volatile
  1473                           
  1474                           ;mcc_generated_files/system/src/clock.c: 45:     OSCEN = 0x0;
  1475   00196E  0E00               	movlw	0
  1476   001970  6FB3               	movwf	179,b	;volatile
  1477                           
  1478                           ;mcc_generated_files/system/src/clock.c: 47:     OSCFRQ = 0x2;
  1479   001972  0E02               	movlw	2
  1480   001974  6FB1               	movwf	177,b	;volatile
  1481                           
  1482                           ;mcc_generated_files/system/src/clock.c: 49:     OSCTUNE = 0x0;
  1483   001976  0E00               	movlw	0
  1484   001978  6FB0               	movwf	176,b	;volatile
  1485                           
  1486                           ;mcc_generated_files/system/src/clock.c: 51:     ACTCON = 0x0;
  1487   00197A  0E00               	movlw	0
  1488   00197C  6FAC               	movwf	172,b	;volatile
  1489                           
  1490                           ;mcc_generated_files/system/src/clock.c: 53:     FSCMCON = 0x0;
  1491   00197E  0E00               	movlw	0
  1492   001980  0104               	movlb	4	; () banked
  1493   001982  6F58               	movwf	88,b	;volatile
  1494   001984                     
  1495                           ; BSR set to: 4
  1496   001984  0012               	return		;funcret
  1497   001986                     __end_of_CLOCK_Initialize:
  1498                           	callstack 0
  1499                           
  1500 ;; *************** function _INTERRUPT_InterruptManager *****************
  1501 ;; Defined at:
  1502 ;;		line 80 in file "mcc_generated_files/system/src/interrupt.c"
  1503 ;; Parameters:    Size  Location     Type
  1504 ;;		None
  1505 ;; Auto vars:     Size  Location     Type
  1506 ;;		None
  1507 ;; Return value:  Size  Location     Type
  1508 ;;                  1    wreg      void 
  1509 ;; Registers used:
  1510 ;;		wreg, fsr2l, fsr2h, status,2, status,0, pcl, pclath, pclatu, tosl, prodl, prodh, cstack
  1511 ;; Tracked objects:
  1512 ;;		On entry : 0/0
  1513 ;;		On exit  : 0/0
  1514 ;;		Unchanged: 0/0
  1515 ;; Data sizes:     COMRAM   BANK5   BANK6   BANK7   BANK8   BANK9  BANK10  BANK11  BANK12  BANK13  BANK14  BANK15  BANK1
      +6  BANK17  BANK18  BANK19  BANK20
  1516 ;;      Params:         0       0       0       0       0       0       0       0       0       0       0       0       
      +0       0       0       0       0
  1517 ;;      Locals:         0       0       0       0       0       0       0       0       0       0       0       0       
      +0       0       0       0       0
  1518 ;;      Temps:          2       0       0       0       0       0       0       0       0       0       0       0       
      +0       0       0       0       0
  1519 ;;      Totals:         2       0       0       0       0       0       0       0       0       0       0       0       
      +0       0       0       0       0
  1520 ;;Total ram usage:        2 bytes
  1521 ;; Hardware stack levels used: 1
  1522 ;; Hardware stack levels required when called: 4
  1523 ;; This function calls:
  1524 ;;		NULL
  1525 ;;		_PIN_MANAGER_IOC
  1526 ;;		_UART2_ReceiveISR
  1527 ;;		_UART2_TransmitISR
  1528 ;; This function is called by:
  1529 ;;		Interrupt level 2
  1530 ;; This function uses a non-reentrant model
  1531 ;;
  1532                           
  1533                           	psect	text13
  1534   001744                     __ptext13:
  1535                           	callstack 0
  1536   001744                     _INTERRUPT_InterruptManager:
  1537                           	callstack 119
  1538                           
  1539                           ; BSR set to: 4
  1540                           ;incstack = 0
  1541   001744  C4FA F53C          	movff	pclath,??_INTERRUPT_InterruptManager
  1542   001748  C4FB F53D          	movff	pclatu,??_INTERRUPT_InterruptManager+1
  1543   00174C                     
  1544                           ;mcc_generated_files/system/src/interrupt.c: 83:     if(PIE0bits.IOCIE == 1 && PIR0bits.
      +                          IOCIF == 1)
  1545   00174C  AEA7               	btfss	167,7,c	;volatile
  1546   00174E  EFAB  F00B         	goto	i2u19_41
  1547   001752  EFAD  F00B         	goto	i2u19_40
  1548   001756                     i2u19_41:
  1549   001756  EFB8  F00B         	goto	i2l86
  1550   00175A                     i2u19_40:
  1551   00175A  AEB2               	btfss	178,7,c	;volatile
  1552   00175C  EFB2  F00B         	goto	i2u20_41
  1553   001760  EFB4  F00B         	goto	i2u20_40
  1554   001764                     i2u20_41:
  1555   001764  EFB8  F00B         	goto	i2l86
  1556   001768                     i2u20_40:
  1557   001768                     
  1558                           ;mcc_generated_files/system/src/interrupt.c: 84:     {;mcc_generated_files/system/src/in
      +                          terrupt.c: 85:         PIN_MANAGER_IOC();
  1559   001768  ECFD  F00C         	call	_PIN_MANAGER_IOC	;wreg free
  1560                           
  1561                           ;mcc_generated_files/system/src/interrupt.c: 86:     }
  1562   00176C  EFF0  F00B         	goto	i2l92
  1563   001770                     i2l86:
  1564   001770  A2AF               	btfss	175,1,c	;volatile
  1565   001772  EFBD  F00B         	goto	i2u21_41
  1566   001776  EFBF  F00B         	goto	i2u21_40
  1567   00177A                     i2u21_41:
  1568   00177A  EFD4  F00B         	goto	i2l88
  1569   00177E                     i2u21_40:
  1570   00177E  A2BA               	btfss	186,1,c	;volatile
  1571   001780  EFC4  F00B         	goto	i2u22_41
  1572   001784  EFC6  F00B         	goto	i2u22_40
  1573   001788                     i2u22_41:
  1574   001788  EFD4  F00B         	goto	i2l88
  1575   00178C                     i2u22_40:
  1576   00178C                     
  1577                           ;mcc_generated_files/system/src/interrupt.c: 88:     {;mcc_generated_files/system/src/in
      +                          terrupt.c: 89:         UART2_TxInterruptHandler();
  1578   00178C  D802               	call	i2u23_48
  1579   00178E  EFD2  F00B         	goto	i2u23_49
  1580   001792                     i2u23_48:
  1581   001792  0005               	push	
  1582   001794  6EFA               	movwf	pclath,c
  1583   001796  5044               	movf	_UART2_TxInterruptHandler^(0+1280),w,c
  1584   001798  6EFD               	movwf	tosl,c
  1585   00179A  5045               	movf	(_UART2_TxInterruptHandler+1)^(0+1280),w,c
  1586   00179C  6EFE               	movwf	tosh,c
  1587   00179E  6AFF               	clrf	tosu,c
  1588   0017A0  50FA               	movf	pclath,w,c
  1589   0017A2  0012               	return		;indir
  1590   0017A4                     i2u23_49:
  1591                           
  1592                           ;mcc_generated_files/system/src/interrupt.c: 90:     }
  1593   0017A4  EFF0  F00B         	goto	i2l92
  1594   0017A8                     i2l88:
  1595   0017A8  A0AF               	btfss	175,0,c	;volatile
  1596   0017AA  EFD9  F00B         	goto	i2u24_41
  1597   0017AE  EFDB  F00B         	goto	i2u24_40
  1598   0017B2                     i2u24_41:
  1599   0017B2  EFF0  F00B         	goto	i2l89
  1600   0017B6                     i2u24_40:
  1601   0017B6  A0BA               	btfss	186,0,c	;volatile
  1602   0017B8  EFE0  F00B         	goto	i2u25_41
  1603   0017BC  EFE2  F00B         	goto	i2u25_40
  1604   0017C0                     i2u25_41:
  1605   0017C0  EFF0  F00B         	goto	i2l89
  1606   0017C4                     i2u25_40:
  1607   0017C4                     
  1608                           ;mcc_generated_files/system/src/interrupt.c: 92:     {;mcc_generated_files/system/src/in
      +                          terrupt.c: 93:         UART2_RxInterruptHandler();
  1609   0017C4  D802               	call	i2u26_48
  1610   0017C6  EFEE  F00B         	goto	i2u26_49
  1611   0017CA                     i2u26_48:
  1612   0017CA  0005               	push	
  1613   0017CC  6EFA               	movwf	pclath,c
  1614   0017CE  5042               	movf	_UART2_RxInterruptHandler^(0+1280),w,c
  1615   0017D0  6EFD               	movwf	tosl,c
  1616   0017D2  5043               	movf	(_UART2_RxInterruptHandler+1)^(0+1280),w,c
  1617   0017D4  6EFE               	movwf	tosh,c
  1618   0017D6  6AFF               	clrf	tosu,c
  1619   0017D8  50FA               	movf	pclath,w,c
  1620   0017DA  0012               	return		;indir
  1621   0017DC                     i2u26_49:
  1622                           
  1623                           ;mcc_generated_files/system/src/interrupt.c: 94:     }
  1624   0017DC  EFF0  F00B         	goto	i2l92
  1625   0017E0                     i2l89:
  1626   0017E0                     i2l92:
  1627   0017E0  C53D  F4FB         	movff	??_INTERRUPT_InterruptManager+1,pclatu
  1628   0017E4  C53C  F4FA         	movff	??_INTERRUPT_InterruptManager,pclath
  1629   0017E8  0011               	retfie		f
  1630   0017EA                     __end_of_INTERRUPT_InterruptManager:
  1631                           	callstack 0
  1632                           
  1633 ;; *************** function _UART2_TransmitISR *****************
  1634 ;; Defined at:
  1635 ;;		line 392 in file "mcc_generated_files/uart/src/uart2.c"
  1636 ;; Parameters:    Size  Location     Type
  1637 ;;		None
  1638 ;; Auto vars:     Size  Location     Type
  1639 ;;  tempTxTail      1    0[COMRAM] unsigned char 
  1640 ;; Return value:  Size  Location     Type
  1641 ;;                  1    wreg      void 
  1642 ;; Registers used:
  1643 ;;		wreg, fsr2l, fsr2h, status,2, status,0
  1644 ;; Tracked objects:
  1645 ;;		On entry : 0/0
  1646 ;;		On exit  : 0/0
  1647 ;;		Unchanged: 0/0
  1648 ;; Data sizes:     COMRAM   BANK5   BANK6   BANK7   BANK8   BANK9  BANK10  BANK11  BANK12  BANK13  BANK14  BANK15  BANK1
      +6  BANK17  BANK18  BANK19  BANK20
  1649 ;;      Params:         0       0       0       0       0       0       0       0       0       0       0       0       
      +0       0       0       0       0
  1650 ;;      Locals:         1       0       0       0       0       0       0       0       0       0       0       0       
      +0       0       0       0       0
  1651 ;;      Temps:          0       0       0       0       0       0       0       0       0       0       0       0       
      +0       0       0       0       0
  1652 ;;      Totals:         1       0       0       0       0       0       0       0       0       0       0       0       
      +0       0       0       0       0
  1653 ;;Total ram usage:        1 bytes
  1654 ;; Hardware stack levels used: 1
  1655 ;; This function calls:
  1656 ;;		Nothing
  1657 ;; This function is called by:
  1658 ;;		_UART2_Initialize
  1659 ;;		_INTERRUPT_InterruptManager
  1660 ;; This function uses a non-reentrant model
  1661 ;;
  1662                           
  1663                           	psect	text14
  1664   0018CA                     __ptext14:
  1665                           	callstack 0
  1666   0018CA                     _UART2_TransmitISR:
  1667                           	callstack 122
  1668   0018CA                     
  1669                           ;mcc_generated_files/uart/src/uart2.c: 394:     uint8_t tempTxTail;;mcc_generated_files/
      +                          uart/src/uart2.c: 396:     if(sizeof(uart2TxBuffer) > uart2TxBufferRemaining)
  1670   0018CA  0E08               	movlw	8
  1671   0018CC  6036               	cpfslt	_uart2TxBufferRemaining^(0+1280),c	;volatile
  1672   0018CE  EF6B  F00C         	goto	i2u18_41
  1673   0018D2  EF6D  F00C         	goto	i2u18_40
  1674   0018D6                     i2u18_41:
  1675   0018D6  EF7E  F00C         	goto	i2l514
  1676   0018DA                     i2u18_40:
  1677   0018DA                     
  1678                           ;mcc_generated_files/uart/src/uart2.c: 397:     {;mcc_generated_files/uart/src/uart2.c: 
      +                          398:        U2TXB = uart2TxBuffer[uart2TxTail];
  1679   0018DA  0E19               	movlw	low _uart2TxBuffer
  1680   0018DC  2437               	addwf	_uart2TxTail^(0+1280),w,c	;volatile
  1681   0018DE  6ED9               	movwf	fsr2l,c
  1682   0018E0  6ADA               	clrf	fsr2h,c
  1683   0018E2  0E05               	movlw	high _uart2TxBuffer
  1684   0018E4  22DA               	addwfc	fsr2h,f,c
  1685   0018E6  50DF               	movf	indf2,w,c
  1686   0018E8  0102               	movlb	2	; () banked
  1687   0018EA  6FB6               	movwf	182,b	;volatile
  1688   0018EC                     
  1689                           ; BSR set to: 2
  1690                           ;mcc_generated_files/uart/src/uart2.c: 399:        tempTxTail = (uart2TxTail + 1) & ((8)
      +                           - 1);
  1691   0018EC  2837               	incf	_uart2TxTail^(0+1280),w,c	;volatile
  1692   0018EE  0B07               	andlw	7
  1693   0018F0  6E39               	movwf	UART2_TransmitISR@tempTxTail^(0+1280),c
  1694   0018F2                     
  1695                           ; BSR set to: 2
  1696                           ;mcc_generated_files/uart/src/uart2.c: 401:        uart2TxTail = tempTxTail;
  1697   0018F2  C539  F537         	movff	UART2_TransmitISR@tempTxTail,_uart2TxTail	;volatile
  1698   0018F6                     
  1699                           ; BSR set to: 2
  1700                           ;mcc_generated_files/uart/src/uart2.c: 402:        uart2TxBufferRemaining++;
  1701   0018F6  2A36               	incf	_uart2TxBufferRemaining^(0+1280),f,c	;volatile
  1702                           
  1703                           ;mcc_generated_files/uart/src/uart2.c: 403:     }
  1704   0018F8  EF7F  F00C         	goto	i2l517
  1705   0018FC                     i2l514:
  1706                           
  1707                           ;mcc_generated_files/uart/src/uart2.c: 405:     {;mcc_generated_files/uart/src/uart2.c: 
      +                          406:         PIE8bits.U2TXIE = 0;
  1708   0018FC  92AF               	bcf	175,1,c	;volatile
  1709   0018FE                     i2l517:
  1710   0018FE  0012               	return		;funcret
  1711   001900                     __end_of_UART2_TransmitISR:
  1712                           	callstack 0
  1713                           
  1714 ;; *************** function _UART2_ReceiveISR *****************
  1715 ;; Defined at:
  1716 ;;		line 322 in file "mcc_generated_files/uart/src/uart2.c"
  1717 ;; Parameters:    Size  Location     Type
  1718 ;;		None
  1719 ;; Auto vars:     Size  Location     Type
  1720 ;;  tempRxHead      1    2[COMRAM] unsigned char 
  1721 ;;  regValue        1    1[COMRAM] unsigned char 
  1722 ;; Return value:  Size  Location     Type
  1723 ;;                  1    wreg      void 
  1724 ;; Registers used:
  1725 ;;		wreg, fsr2l, fsr2h, status,2, status,0, pcl, pclath, pclatu, tosl, prodl, prodh, cstack
  1726 ;; Tracked objects:
  1727 ;;		On entry : 0/0
  1728 ;;		On exit  : 0/0
  1729 ;;		Unchanged: 0/0
  1730 ;; Data sizes:     COMRAM   BANK5   BANK6   BANK7   BANK8   BANK9  BANK10  BANK11  BANK12  BANK13  BANK14  BANK15  BANK1
      +6  BANK17  BANK18  BANK19  BANK20
  1731 ;;      Params:         0       0       0       0       0       0       0       0       0       0       0       0       
      +0       0       0       0       0
  1732 ;;      Locals:         2       0       0       0       0       0       0       0       0       0       0       0       
      +0       0       0       0       0
  1733 ;;      Temps:          1       0       0       0       0       0       0       0       0       0       0       0       
      +0       0       0       0       0
  1734 ;;      Totals:         3       0       0       0       0       0       0       0       0       0       0       0       
      +0       0       0       0       0
  1735 ;;Total ram usage:        3 bytes
  1736 ;; Hardware stack levels used: 1
  1737 ;; Hardware stack levels required when called: 1
  1738 ;; This function calls:
  1739 ;;		NULL
  1740 ;;		_UART2_DefaultFramingErrorCallback
  1741 ;;		_UART2_DefaultOverrunErrorCallback
  1742 ;; This function is called by:
  1743 ;;		_UART2_Initialize
  1744 ;;		_INTERRUPT_InterruptManager
  1745 ;; This function uses a non-reentrant model
  1746 ;;
  1747                           
  1748                           	psect	text15
  1749   001532                     __ptext15:
  1750                           	callstack 0
  1751   001532                     _UART2_ReceiveISR:
  1752                           	callstack 121
  1753   001532                     
  1754                           ;mcc_generated_files/uart/src/uart2.c: 324:     uint8_t regValue;;mcc_generated_files/ua
      +                          rt/src/uart2.c: 325:  uint8_t tempRxHead;;mcc_generated_files/uart/src/uart2.c: 327:    
      +                           uart2RxStatusBuffer[uart2RxHead].status = 0;
  1755   001532  5035               	movf	_uart2RxHead^(0+1280),w,c	;volatile
  1756   001534  0D02               	mullw	2
  1757   001536  0E01               	movlw	low _uart2RxStatusBuffer
  1758   001538  24F3               	addwf	243,w,c
  1759   00153A  6ED9               	movwf	fsr2l,c
  1760   00153C  0E05               	movlw	high _uart2RxStatusBuffer
  1761   00153E  20F4               	addwfc	prodh,w,c
  1762   001540  6EDA               	movwf	fsr2h,c
  1763   001542  6ADE               	clrf	postinc2,c
  1764   001544  6ADD               	clrf	postdec2,c
  1765   001546                     
  1766                           ;mcc_generated_files/uart/src/uart2.c: 329:     if(U2ERRIRbits.FERIF)
  1767   001546  0102               	movlb	2	; () banked
  1768   001548  A7C5               	btfss	197,3,b	;volatile
  1769   00154A  EFA9  F00A         	goto	i2u9_41
  1770   00154E  EFAB  F00A         	goto	i2u9_40
  1771   001552                     i2u9_41:
  1772   001552  EFC9  F00A         	goto	i2l1410
  1773   001556                     i2u9_40:
  1774   001556                     
  1775                           ; BSR set to: 2
  1776                           ;mcc_generated_files/uart/src/uart2.c: 330:     {;mcc_generated_files/uart/src/uart2.c: 
      +                          331:         uart2RxStatusBuffer[uart2RxHead].ferr = 1;
  1777   001556  5035               	movf	_uart2RxHead^(0+1280),w,c	;volatile
  1778   001558  0D02               	mullw	2
  1779   00155A  0E01               	movlw	low _uart2RxStatusBuffer
  1780   00155C  24F3               	addwf	243,w,c
  1781   00155E  6ED9               	movwf	fsr2l,c
  1782   001560  0E05               	movlw	high _uart2RxStatusBuffer
  1783   001562  20F4               	addwfc	prodh,w,c
  1784   001564  6EDA               	movwf	fsr2h,c
  1785   001566  82DF               	bsf	indf2,1,c
  1786   001568                     
  1787                           ; BSR set to: 2
  1788                           ;mcc_generated_files/uart/src/uart2.c: 332:         if(((void*)0) != UART2_FramingErrorH
      +                          andler)
  1789   001568  5029               	movf	_UART2_FramingErrorHandler^(0+1280),w,c
  1790   00156A  102A               	iorwf	(_UART2_FramingErrorHandler+1)^(0+1280),w,c
  1791   00156C  B4D8               	btfsc	status,2,c
  1792   00156E  EFBB  F00A         	goto	i2u10_41
  1793   001572  EFBD  F00A         	goto	i2u10_40
  1794   001576                     i2u10_41:
  1795   001576  EFC9  F00A         	goto	i2l1410
  1796   00157A                     i2u10_40:
  1797   00157A                     
  1798                           ; BSR set to: 2
  1799                           ;mcc_generated_files/uart/src/uart2.c: 333:         {;mcc_generated_files/uart/src/uart2
      +                          .c: 334:             UART2_FramingErrorHandler();
  1800   00157A  D802               	call	i2u11_48
  1801   00157C  EFC9  F00A         	goto	i2u11_49
  1802   001580                     i2u11_48:
  1803   001580  0005               	push	
  1804   001582  6EFA               	movwf	pclath,c
  1805   001584  5029               	movf	_UART2_FramingErrorHandler^(0+1280),w,c
  1806   001586  6EFD               	movwf	tosl,c
  1807   001588  502A               	movf	(_UART2_FramingErrorHandler+1)^(0+1280),w,c
  1808   00158A  6EFE               	movwf	tosh,c
  1809   00158C  6AFF               	clrf	tosu,c
  1810   00158E  50FA               	movf	pclath,w,c
  1811   001590  0012               	return		;indir
  1812   001592                     i2u11_49:
  1813   001592                     i2l1410:
  1814                           
  1815                           ;mcc_generated_files/uart/src/uart2.c: 337:     if(U2ERRIRbits.RXFOIF)
  1816   001592  0102               	movlb	2	; () banked
  1817   001594  A3C5               	btfss	197,1,b	;volatile
  1818   001596  EFCF  F00A         	goto	i2u12_41
  1819   00159A  EFD1  F00A         	goto	i2u12_40
  1820   00159E                     i2u12_41:
  1821   00159E  EFEF  F00A         	goto	i2l1418
  1822   0015A2                     i2u12_40:
  1823   0015A2                     
  1824                           ; BSR set to: 2
  1825                           ;mcc_generated_files/uart/src/uart2.c: 338:     {;mcc_generated_files/uart/src/uart2.c: 
      +                          339:         uart2RxStatusBuffer[uart2RxHead].oerr = 1;
  1826   0015A2  5035               	movf	_uart2RxHead^(0+1280),w,c	;volatile
  1827   0015A4  0D02               	mullw	2
  1828   0015A6  0E01               	movlw	low _uart2RxStatusBuffer
  1829   0015A8  24F3               	addwf	243,w,c
  1830   0015AA  6ED9               	movwf	fsr2l,c
  1831   0015AC  0E05               	movlw	high _uart2RxStatusBuffer
  1832   0015AE  20F4               	addwfc	prodh,w,c
  1833   0015B0  6EDA               	movwf	fsr2h,c
  1834   0015B2  84DF               	bsf	indf2,2,c
  1835   0015B4                     
  1836                           ; BSR set to: 2
  1837                           ;mcc_generated_files/uart/src/uart2.c: 340:         if(((void*)0) != UART2_OverrunErrorH
      +                          andler)
  1838   0015B4  5027               	movf	_UART2_OverrunErrorHandler^(0+1280),w,c
  1839   0015B6  1028               	iorwf	(_UART2_OverrunErrorHandler+1)^(0+1280),w,c
  1840   0015B8  B4D8               	btfsc	status,2,c
  1841   0015BA  EFE1  F00A         	goto	i2u13_41
  1842   0015BE  EFE3  F00A         	goto	i2u13_40
  1843   0015C2                     i2u13_41:
  1844   0015C2  EFEF  F00A         	goto	i2l1418
  1845   0015C6                     i2u13_40:
  1846   0015C6                     
  1847                           ; BSR set to: 2
  1848                           ;mcc_generated_files/uart/src/uart2.c: 341:         {;mcc_generated_files/uart/src/uart2
      +                          .c: 342:             UART2_OverrunErrorHandler();
  1849   0015C6  D802               	call	i2u14_48
  1850   0015C8  EFEF  F00A         	goto	i2u14_49
  1851   0015CC                     i2u14_48:
  1852   0015CC  0005               	push	
  1853   0015CE  6EFA               	movwf	pclath,c
  1854   0015D0  5027               	movf	_UART2_OverrunErrorHandler^(0+1280),w,c
  1855   0015D2  6EFD               	movwf	tosl,c
  1856   0015D4  5028               	movf	(_UART2_OverrunErrorHandler+1)^(0+1280),w,c
  1857   0015D6  6EFE               	movwf	tosh,c
  1858   0015D8  6AFF               	clrf	tosu,c
  1859   0015DA  50FA               	movf	pclath,w,c
  1860   0015DC  0012               	return		;indir
  1861   0015DE                     i2u14_49:
  1862   0015DE                     i2l1418:
  1863                           
  1864                           ;mcc_generated_files/uart/src/uart2.c: 346:     regValue = U2RXB;
  1865   0015DE  C2B4 F53A          	movff	692,UART2_ReceiveISR@regValue	;volatile
  1866   0015E2                     
  1867                           ;mcc_generated_files/uart/src/uart2.c: 347:     if(regValue == 'T')do { LATCbits.LATC7 =
      +                           ~LATCbits.LATC7; } while(0);
  1868   0015E2  0E54               	movlw	84
  1869   0015E4  183A               	xorwf	UART2_ReceiveISR@regValue^(0+1280),w,c
  1870   0015E6  A4D8               	btfss	status,2,c
  1871   0015E8  EFF8  F00A         	goto	i2u15_41
  1872   0015EC  EFFA  F00A         	goto	i2u15_40
  1873   0015F0                     i2u15_41:
  1874   0015F0  EF0D  F00B         	goto	i2l498
  1875   0015F4                     i2u15_40:
  1876   0015F4  0101               	movlb	1	; () banked
  1877   0015F6  BF42               	btfsc	66,7,b	;volatile
  1878   0015F8  EF00  F00B         	goto	i2u16_41
  1879   0015FC  EF03  F00B         	goto	i2u16_40
  1880   001600                     i2u16_41:
  1881   001600  0E01               	movlw	1
  1882   001602  EF04  F00B         	goto	i2u16_46
  1883   001606                     i2u16_40:
  1884   001606  0E00               	movlw	0
  1885   001608                     i2u16_46:
  1886   001608  0AFF               	xorlw	255
  1887   00160A  6E39               	movwf	??_UART2_ReceiveISR^(0+1280),c
  1888   00160C  3239               	rrcf	??_UART2_ReceiveISR^(0+1280),f,c
  1889   00160E  3239               	rrcf	??_UART2_ReceiveISR^(0+1280),f,c
  1890   001610  5142               	movf	66,w,b	;volatile
  1891   001612  1839               	xorwf	??_UART2_ReceiveISR^(0+1280),w,c
  1892   001614  0B7F               	andlw	-129
  1893   001616  1839               	xorwf	??_UART2_ReceiveISR^(0+1280),w,c
  1894   001618  6F42               	movwf	66,b	;volatile
  1895   00161A                     i2l498:
  1896                           
  1897                           ;mcc_generated_files/uart/src/uart2.c: 349:     tempRxHead = (uart2RxHead + 1) & ((8) - 
      +                          1);
  1898   00161A  2835               	incf	_uart2RxHead^(0+1280),w,c	;volatile
  1899   00161C  0B07               	andlw	7
  1900   00161E  6E3B               	movwf	UART2_ReceiveISR@tempRxHead^(0+1280),c
  1901                           
  1902                           ;mcc_generated_files/uart/src/uart2.c: 350:     if (tempRxHead == uart2RxTail)
  1903   001620  5034               	movf	_uart2RxTail^(0+1280),w,c	;volatile
  1904   001622  183B               	xorwf	UART2_ReceiveISR@tempRxHead^(0+1280),w,c
  1905   001624  A4D8               	btfss	status,2,c
  1906   001626  EF17  F00B         	goto	i2u17_41
  1907   00162A  EF19  F00B         	goto	i2u17_40
  1908   00162E                     i2u17_41:
  1909   00162E  EF1B  F00B         	goto	i2l1426
  1910   001632                     i2u17_40:
  1911   001632  EF26  F00B         	goto	i2l504
  1912   001636                     i2l1426:
  1913                           
  1914                           ;mcc_generated_files/uart/src/uart2.c: 355:     {;mcc_generated_files/uart/src/uart2.c: 
      +                          356:         uart2RxBuffer[uart2RxHead] = regValue;
  1915   001636  0E11               	movlw	low _uart2RxBuffer
  1916   001638  2435               	addwf	_uart2RxHead^(0+1280),w,c	;volatile
  1917   00163A  6ED9               	movwf	fsr2l,c
  1918   00163C  6ADA               	clrf	fsr2h,c
  1919   00163E  0E05               	movlw	high _uart2RxBuffer
  1920   001640  22DA               	addwfc	fsr2h,f,c
  1921   001642  C53A  F4DF         	movff	UART2_ReceiveISR@regValue,indf2
  1922   001646                     
  1923                           ;mcc_generated_files/uart/src/uart2.c: 357:   uart2RxHead = tempRxHead;
  1924   001646  C53B  F535         	movff	UART2_ReceiveISR@tempRxHead,_uart2RxHead	;volatile
  1925   00164A                     
  1926                           ;mcc_generated_files/uart/src/uart2.c: 358:   uart2RxCount++;
  1927   00164A  2A33               	incf	_uart2RxCount^(0+1280),f,c	;volatile
  1928   00164C                     i2l504:
  1929   00164C  0012               	return		;funcret
  1930   00164E                     __end_of_UART2_ReceiveISR:
  1931                           	callstack 0
  1932                           
  1933 ;; *************** function _UART2_DefaultOverrunErrorCallback *****************
  1934 ;; Defined at:
  1935 ;;		line 423 in file "mcc_generated_files/uart/src/uart2.c"
  1936 ;; Parameters:    Size  Location     Type
  1937 ;;		None
  1938 ;; Auto vars:     Size  Location     Type
  1939 ;;		None
  1940 ;; Return value:  Size  Location     Type
  1941 ;;                  1    wreg      void 
  1942 ;; Registers used:
  1943 ;;		None
  1944 ;; Tracked objects:
  1945 ;;		On entry : 0/0
  1946 ;;		On exit  : 0/0
  1947 ;;		Unchanged: 0/0
  1948 ;; Data sizes:     COMRAM   BANK5   BANK6   BANK7   BANK8   BANK9  BANK10  BANK11  BANK12  BANK13  BANK14  BANK15  BANK1
      +6  BANK17  BANK18  BANK19  BANK20
  1949 ;;      Params:         0       0       0       0       0       0       0       0       0       0       0       0       
      +0       0       0       0       0
  1950 ;;      Locals:         0       0       0       0       0       0       0       0       0       0       0       0       
      +0       0       0       0       0
  1951 ;;      Temps:          0       0       0       0       0       0       0       0       0       0       0       0       
      +0       0       0       0       0
  1952 ;;      Totals:         0       0       0       0       0       0       0       0       0       0       0       0       
      +0       0       0       0       0
  1953 ;;Total ram usage:        0 bytes
  1954 ;; Hardware stack levels used: 1
  1955 ;; This function calls:
  1956 ;;		Nothing
  1957 ;; This function is called by:
  1958 ;;		_UART2_Initialize
  1959 ;;		_UART2_ReceiveISR
  1960 ;; This function uses a non-reentrant model
  1961 ;;
  1962                           
  1963                           	psect	text16
  1964   001A60                     __ptext16:
  1965                           	callstack 0
  1966   001A60                     _UART2_DefaultOverrunErrorCallback:
  1967                           	callstack 121
  1968   001A60  0012               	return		;funcret
  1969   001A62                     __end_of_UART2_DefaultOverrunErrorCallback:
  1970                           	callstack 0
  1971                           
  1972 ;; *************** function _UART2_DefaultFramingErrorCallback *****************
  1973 ;; Defined at:
  1974 ;;		line 418 in file "mcc_generated_files/uart/src/uart2.c"
  1975 ;; Parameters:    Size  Location     Type
  1976 ;;		None
  1977 ;; Auto vars:     Size  Location     Type
  1978 ;;		None
  1979 ;; Return value:  Size  Location     Type
  1980 ;;                  1    wreg      void 
  1981 ;; Registers used:
  1982 ;;		None
  1983 ;; Tracked objects:
  1984 ;;		On entry : 0/0
  1985 ;;		On exit  : 0/0
  1986 ;;		Unchanged: 0/0
  1987 ;; Data sizes:     COMRAM   BANK5   BANK6   BANK7   BANK8   BANK9  BANK10  BANK11  BANK12  BANK13  BANK14  BANK15  BANK1
      +6  BANK17  BANK18  BANK19  BANK20
  1988 ;;      Params:         0       0       0       0       0       0       0       0       0       0       0       0       
      +0       0       0       0       0
  1989 ;;      Locals:         0       0       0       0       0       0       0       0       0       0       0       0       
      +0       0       0       0       0
  1990 ;;      Temps:          0       0       0       0       0       0       0       0       0       0       0       0       
      +0       0       0       0       0
  1991 ;;      Totals:         0       0       0       0       0       0       0       0       0       0       0       0       
      +0       0       0       0       0
  1992 ;;Total ram usage:        0 bytes
  1993 ;; Hardware stack levels used: 1
  1994 ;; This function calls:
  1995 ;;		Nothing
  1996 ;; This function is called by:
  1997 ;;		_UART2_Initialize
  1998 ;;		_UART2_ReceiveISR
  1999 ;; This function uses a non-reentrant model
  2000 ;;
  2001                           
  2002                           	psect	text17
  2003   001A62                     __ptext17:
  2004                           	callstack 0
  2005   001A62                     _UART2_DefaultFramingErrorCallback:
  2006                           	callstack 121
  2007   001A62  0012               	return		;funcret
  2008   001A64                     __end_of_UART2_DefaultFramingErrorCallback:
  2009                           	callstack 0
  2010                           
  2011 ;; *************** function _PIN_MANAGER_IOC *****************
  2012 ;; Defined at:
  2013 ;;		line 150 in file "mcc_generated_files/system/src/pins.c"
  2014 ;; Parameters:    Size  Location     Type
  2015 ;;		None
  2016 ;; Auto vars:     Size  Location     Type
  2017 ;;		None
  2018 ;; Return value:  Size  Location     Type
  2019 ;;                  1    wreg      void 
  2020 ;; Registers used:
  2021 ;;		wreg, fsr2l, fsr2h, status,2, status,0, pcl, pclath, pclatu, tosl, cstack
  2022 ;; Tracked objects:
  2023 ;;		On entry : 0/0
  2024 ;;		On exit  : 0/0
  2025 ;;		Unchanged: 0/0
  2026 ;; Data sizes:     COMRAM   BANK5   BANK6   BANK7   BANK8   BANK9  BANK10  BANK11  BANK12  BANK13  BANK14  BANK15  BANK1
      +6  BANK17  BANK18  BANK19  BANK20
  2027 ;;      Params:         0       0       0       0       0       0       0       0       0       0       0       0       
      +0       0       0       0       0
  2028 ;;      Locals:         0       0       0       0       0       0       0       0       0       0       0       0       
      +0       0       0       0       0
  2029 ;;      Temps:          0       0       0       0       0       0       0       0       0       0       0       0       
      +0       0       0       0       0
  2030 ;;      Totals:         0       0       0       0       0       0       0       0       0       0       0       0       
      +0       0       0       0       0
  2031 ;;Total ram usage:        0 bytes
  2032 ;; Hardware stack levels used: 1
  2033 ;; Hardware stack levels required when called: 3
  2034 ;; This function calls:
  2035 ;;		_SW0_ISR
  2036 ;; This function is called by:
  2037 ;;		_INTERRUPT_InterruptManager
  2038 ;; This function uses a non-reentrant model
  2039 ;;
  2040                           
  2041                           	psect	text18
  2042   0019FA                     __ptext18:
  2043                           	callstack 0
  2044   0019FA                     _PIN_MANAGER_IOC:
  2045                           	callstack 119
  2046   0019FA                     
  2047                           ;mcc_generated_files/system/src/pins.c: 153:     if(IOCAFbits.IOCAF0 == 1)
  2048   0019FA  0104               	movlb	4	; () banked
  2049   0019FC  A107               	btfss	7,0,b	;volatile
  2050   0019FE  EF03  F00D         	goto	i2u8_41
  2051   001A02  EF05  F00D         	goto	i2u8_40
  2052   001A06                     i2u8_41:
  2053   001A06  EF07  F00D         	goto	i2l282
  2054   001A0A                     i2u8_40:
  2055   001A0A                     
  2056                           ; BSR set to: 4
  2057                           ;mcc_generated_files/system/src/pins.c: 154:     {;mcc_generated_files/system/src/pins.c
      +                          : 155:         SW0_ISR();
  2058   001A0A  EC9A  F00C         	call	_SW0_ISR	;wreg free
  2059   001A0E                     i2l282:
  2060   001A0E  0012               	return		;funcret
  2061   001A10                     __end_of_PIN_MANAGER_IOC:
  2062                           	callstack 0
  2063                           
  2064 ;; *************** function _SW0_ISR *****************
  2065 ;; Defined at:
  2066 ;;		line 162 in file "mcc_generated_files/system/src/pins.c"
  2067 ;; Parameters:    Size  Location     Type
  2068 ;;		None
  2069 ;; Auto vars:     Size  Location     Type
  2070 ;;		None
  2071 ;; Return value:  Size  Location     Type
  2072 ;;                  1    wreg      void 
  2073 ;; Registers used:
  2074 ;;		wreg, fsr2l, fsr2h, status,2, status,0, pcl, pclath, pclatu, tosl, cstack
  2075 ;; Tracked objects:
  2076 ;;		On entry : 0/0
  2077 ;;		On exit  : 0/0
  2078 ;;		Unchanged: 0/0
  2079 ;; Data sizes:     COMRAM   BANK5   BANK6   BANK7   BANK8   BANK9  BANK10  BANK11  BANK12  BANK13  BANK14  BANK15  BANK1
      +6  BANK17  BANK18  BANK19  BANK20
  2080 ;;      Params:         0       0       0       0       0       0       0       0       0       0       0       0       
      +0       0       0       0       0
  2081 ;;      Locals:         0       0       0       0       0       0       0       0       0       0       0       0       
      +0       0       0       0       0
  2082 ;;      Temps:          0       0       0       0       0       0       0       0       0       0       0       0       
      +0       0       0       0       0
  2083 ;;      Totals:         0       0       0       0       0       0       0       0       0       0       0       0       
      +0       0       0       0       0
  2084 ;;Total ram usage:        0 bytes
  2085 ;; Hardware stack levels used: 1
  2086 ;; Hardware stack levels required when called: 2
  2087 ;; This function calls:
  2088 ;;		NULL
  2089 ;;		_SW0_DefaultInterruptHandler
  2090 ;; This function is called by:
  2091 ;;		_PIN_MANAGER_IOC
  2092 ;; This function uses a non-reentrant model
  2093 ;;
  2094                           
  2095                           	psect	text19
  2096   001934                     __ptext19:
  2097                           	callstack 0
  2098   001934                     _SW0_ISR:
  2099                           	callstack 119
  2100   001934                     
  2101                           ;mcc_generated_files/system/src/pins.c: 167:     if(SW0_InterruptHandler)
  2102   001934  5040               	movf	_SW0_InterruptHandler^(0+1280),w,c
  2103   001936  1041               	iorwf	(_SW0_InterruptHandler+1)^(0+1280),w,c
  2104   001938  B4D8               	btfsc	status,2,c
  2105   00193A  EFA1  F00C         	goto	i2u6_41
  2106   00193E  EFA3  F00C         	goto	i2u6_40
  2107   001942                     i2u6_41:
  2108   001942  EFAF  F00C         	goto	i2l1386
  2109   001946                     i2u6_40:
  2110   001946                     
  2111                           ;mcc_generated_files/system/src/pins.c: 168:     {;mcc_generated_files/system/src/pins.c
      +                          : 169:         SW0_InterruptHandler();
  2112   001946  D802               	call	i2u7_48
  2113   001948  EFAF  F00C         	goto	i2u7_49
  2114   00194C                     i2u7_48:
  2115   00194C  0005               	push	
  2116   00194E  6EFA               	movwf	pclath,c
  2117   001950  5040               	movf	_SW0_InterruptHandler^(0+1280),w,c
  2118   001952  6EFD               	movwf	tosl,c
  2119   001954  5041               	movf	(_SW0_InterruptHandler+1)^(0+1280),w,c
  2120   001956  6EFE               	movwf	tosh,c
  2121   001958  6AFF               	clrf	tosu,c
  2122   00195A  50FA               	movf	pclath,w,c
  2123   00195C  0012               	return		;indir
  2124   00195E                     i2u7_49:
  2125   00195E                     i2l1386:
  2126                           
  2127                           ;mcc_generated_files/system/src/pins.c: 171:     IOCAFbits.IOCAF0 = 0;
  2128   00195E  0104               	movlb	4	; () banked
  2129   001960  9107               	bcf	7,0,b	;volatile
  2130   001962                     
  2131                           ; BSR set to: 4
  2132   001962  0012               	return		;funcret
  2133   001964                     __end_of_SW0_ISR:
  2134                           	callstack 0
  2135                           
  2136 ;; *************** function _SW0_DefaultInterruptHandler *****************
  2137 ;; Defined at:
  2138 ;;		line 184 in file "mcc_generated_files/system/src/pins.c"
  2139 ;; Parameters:    Size  Location     Type
  2140 ;;		None
  2141 ;; Auto vars:     Size  Location     Type
  2142 ;;		None
  2143 ;; Return value:  Size  Location     Type
  2144 ;;                  1    wreg      void 
  2145 ;; Registers used:
  2146 ;;		wreg, fsr2l, fsr2h, status,2, status,0, cstack
  2147 ;; Tracked objects:
  2148 ;;		On entry : 0/0
  2149 ;;		On exit  : 0/0
  2150 ;;		Unchanged: 0/0
  2151 ;; Data sizes:     COMRAM   BANK5   BANK6   BANK7   BANK8   BANK9  BANK10  BANK11  BANK12  BANK13  BANK14  BANK15  BANK1
      +6  BANK17  BANK18  BANK19  BANK20
  2152 ;;      Params:         0       0       0       0       0       0       0       0       0       0       0       0       
      +0       0       0       0       0
  2153 ;;      Locals:         0       0       0       0       0       0       0       0       0       0       0       0       
      +0       0       0       0       0
  2154 ;;      Temps:          0       0       0       0       0       0       0       0       0       0       0       0       
      +0       0       0       0       0
  2155 ;;      Totals:         0       0       0       0       0       0       0       0       0       0       0       0       
      +0       0       0       0       0
  2156 ;;Total ram usage:        0 bytes
  2157 ;; Hardware stack levels used: 1
  2158 ;; Hardware stack levels required when called: 1
  2159 ;; This function calls:
  2160 ;;		_UART2_Write
  2161 ;; This function is called by:
  2162 ;;		_PIN_MANAGER_Initialize
  2163 ;;		_SW0_ISR
  2164 ;; This function uses a non-reentrant model
  2165 ;;
  2166                           
  2167                           	psect	text20
  2168   001A58                     __ptext20:
  2169                           	callstack 0
  2170   001A58                     _SW0_DefaultInterruptHandler:
  2171                           	callstack 119
  2172   001A58                     
  2173                           ;mcc_generated_files/system/src/pins.c: 187:     UART2_Write('S');
  2174   001A58  0E53               	movlw	83
  2175   001A5A  EC40  F00C         	call	_UART2_Write
  2176   001A5E  0012               	return		;funcret
  2177   001A60                     __end_of_SW0_DefaultInterruptHandler:
  2178                           	callstack 0
  2179                           
  2180 ;; *************** function _UART2_Write *****************
  2181 ;; Defined at:
  2182 ;;		line 367 in file "mcc_generated_files/uart/src/uart2.c"
  2183 ;; Parameters:    Size  Location     Type
  2184 ;;  txData          1    wreg     unsigned char 
  2185 ;; Auto vars:     Size  Location     Type
  2186 ;;  txData          1    1[COMRAM] unsigned char 
  2187 ;;  tempTxHead      1    0[COMRAM] unsigned char 
  2188 ;; Return value:  Size  Location     Type
  2189 ;;                  1    wreg      void 
  2190 ;; Registers used:
  2191 ;;		wreg, fsr2l, fsr2h, status,2, status,0
  2192 ;; Tracked objects:
  2193 ;;		On entry : 0/0
  2194 ;;		On exit  : 0/0
  2195 ;;		Unchanged: 0/0
  2196 ;; Data sizes:     COMRAM   BANK5   BANK6   BANK7   BANK8   BANK9  BANK10  BANK11  BANK12  BANK13  BANK14  BANK15  BANK1
      +6  BANK17  BANK18  BANK19  BANK20
  2197 ;;      Params:         0       0       0       0       0       0       0       0       0       0       0       0       
      +0       0       0       0       0
  2198 ;;      Locals:         2       0       0       0       0       0       0       0       0       0       0       0       
      +0       0       0       0       0
  2199 ;;      Temps:          0       0       0       0       0       0       0       0       0       0       0       0       
      +0       0       0       0       0
  2200 ;;      Totals:         2       0       0       0       0       0       0       0       0       0       0       0       
      +0       0       0       0       0
  2201 ;;Total ram usage:        2 bytes
  2202 ;; Hardware stack levels used: 1
  2203 ;; This function calls:
  2204 ;;		Nothing
  2205 ;; This function is called by:
  2206 ;;		_SW0_DefaultInterruptHandler
  2207 ;; This function uses a non-reentrant model
  2208 ;;
  2209                           
  2210                           	psect	text21
  2211   001880                     __ptext21:
  2212                           	callstack 0
  2213   001880                     _UART2_Write:
  2214                           	callstack 119
  2215                           
  2216                           ;incstack = 0
  2217                           ;UART2_Write@txData stored from wreg
  2218   001880  6E3A               	movwf	UART2_Write@txData^(0+1280),c
  2219   001882                     
  2220                           ;mcc_generated_files/uart/src/uart2.c: 367: void UART2_Write(uint8_t txData);mcc_generat
      +                          ed_files/uart/src/uart2.c: 368: {;mcc_generated_files/uart/src/uart2.c: 369:     uint8_t
      +                           tempTxHead;;mcc_generated_files/uart/src/uart2.c: 371:     if(0 == PIE8bits.U2TXIE)
  2221   001882  B2AF               	btfsc	175,1,c	;volatile
  2222   001884  EF46  F00C         	goto	i2u1_41
  2223   001888  EF48  F00C         	goto	i2u1_40
  2224   00188C                     i2u1_41:
  2225   00188C  EF4C  F00C         	goto	i2l1242
  2226   001890                     i2u1_40:
  2227   001890                     
  2228                           ;mcc_generated_files/uart/src/uart2.c: 372:     {;mcc_generated_files/uart/src/uart2.c: 
      +                          373:     U2TXB = txData;
  2229   001890  C53A  F2B6         	movff	UART2_Write@txData,694	;volatile
  2230                           
  2231                           ;mcc_generated_files/uart/src/uart2.c: 374: }
  2232   001894  EF63  F00C         	goto	i2l508
  2233   001898                     i2l1242:
  2234   001898  5036               	movf	_uart2TxBufferRemaining^(0+1280),w,c	;volatile
  2235   00189A  B4D8               	btfsc	status,2,c
  2236   00189C  EF52  F00C         	goto	i2u2_41
  2237   0018A0  EF54  F00C         	goto	i2u2_40
  2238   0018A4                     i2u2_41:
  2239   0018A4  EF63  F00C         	goto	i2l508
  2240   0018A8                     i2u2_40:
  2241   0018A8                     
  2242                           ;mcc_generated_files/uart/src/uart2.c: 376:     {;mcc_generated_files/uart/src/uart2.c: 
      +                          377:        uart2TxBuffer[uart2TxHead] = txData;
  2243   0018A8  0E19               	movlw	low _uart2TxBuffer
  2244   0018AA  2438               	addwf	_uart2TxHead^(0+1280),w,c	;volatile
  2245   0018AC  6ED9               	movwf	fsr2l,c
  2246   0018AE  6ADA               	clrf	fsr2h,c
  2247   0018B0  0E05               	movlw	high _uart2TxBuffer
  2248   0018B2  22DA               	addwfc	fsr2h,f,c
  2249   0018B4  C53A  F4DF         	movff	UART2_Write@txData,indf2
  2250   0018B8                     
  2251                           ;mcc_generated_files/uart/src/uart2.c: 378:        tempTxHead = (uart2TxHead + 1) & ((8)
      +                           - 1);
  2252   0018B8  2838               	incf	_uart2TxHead^(0+1280),w,c	;volatile
  2253   0018BA  0B07               	andlw	7
  2254   0018BC  6E39               	movwf	UART2_Write@tempTxHead^(0+1280),c
  2255   0018BE                     
  2256                           ;mcc_generated_files/uart/src/uart2.c: 380:        uart2TxHead = tempTxHead;
  2257   0018BE  C539  F538         	movff	UART2_Write@tempTxHead,_uart2TxHead	;volatile
  2258   0018C2                     
  2259                           ;mcc_generated_files/uart/src/uart2.c: 381:        PIE8bits.U2TXIE = 0;
  2260   0018C2  92AF               	bcf	175,1,c	;volatile
  2261   0018C4                     
  2262                           ;mcc_generated_files/uart/src/uart2.c: 382:        uart2TxBufferRemaining--;
  2263   0018C4  0636               	decf	_uart2TxBufferRemaining^(0+1280),f,c	;volatile
  2264   0018C6                     i2l508:
  2265                           
  2266                           ;mcc_generated_files/uart/src/uart2.c: 388:     PIE8bits.U2TXIE = 1;
  2267   0018C6  82AF               	bsf	175,1,c	;volatile
  2268   0018C8  0012               	return		;funcret
  2269   0018CA                     __end_of_UART2_Write:
  2270                           	callstack 0
  2271                           
  2272                           ;
  2273                           ; H/W Interrupt Vector Table @ 0x8
  2274                           ;
  2275                           
  2276                           	psect	ivt0x8
  2277   000008                     __pivt0x8:
  2278                           	callstack 0
  2279   000008                     ivt0x8_base:
  2280                           	callstack 0
  2281                           
  2282                           ; high-priority vector
  2283   000008  EFA2  F00B         	goto	_INTERRUPT_InterruptManager
  2284   000018                     	org	16
  2285                           
  2286                           ; low-priority vector
  2287   000018  00FF               	reset	
  2288                           
  2289                           	psect	rparam
  2290   000000                     
  2291                           	psect	config
  2292                           
  2293                           ;Config register CONFIG1 @ 0x300000
  2294                           ;	External Oscillator Selection
  2295                           ;	FEXTOSC = ECH, EC (external clock) above 8 MHz
  2296                           ;	Reset Oscillator Selection
  2297                           ;	RSTOSC = EXTOSC, EXTOSC operating per FEXTOSC bits (device manufacturing default)
  2298   300000                     	org	3145728
  2299   300000  FF                 	db	255
  2300                           
  2301                           ;Config register CONFIG2 @ 0x300001
  2302                           ;	Clock out Enable bit
  2303                           ;	CLKOUTEN = OFF, CLKOUT function is disabled
  2304                           ;	PRLOCKED One-Way Set Enable bit
  2305                           ;	PR1WAY = ON, PRLOCKED bit can be cleared and set only once
  2306                           ;	Boot Block enable bit
  2307                           ;	BBEN = OFF, Boot block disabled
  2308                           ;	Clock Switch Enable bit
  2309                           ;	CSWEN = ON, Writing to NOSC and NDIV is allowed
  2310                           ;	Fail-Safe Clock Monitor Enable bit
  2311                           ;	FCMEN = ON, Fail-Safe Clock Monitor enabled
  2312                           ;	Fail-Safe Clock Monitor - Primary XTAL Enable bit
  2313                           ;	FCMENP = ON, Fail-Safe Clock Monitor enabled; timer will flag FSCMP bit and OSFIF inte
      +                          rrupt on EXTOSC failure.
  2314                           ;	Fail-Safe Clock Monitor - Secondary XTAL Enable bit
  2315                           ;	FCMENS = ON, Fail-Safe Clock Monitor enabled; timer will flag FSCMP bit and OSFIF inte
      +                          rrupt on SOSC failure.
  2316   300001                     	org	3145729
  2317   300001  FF                 	db	255
  2318                           
  2319                           ;Config register CONFIG3 @ 0x300002
  2320                           ;	MCLR Enable bit
  2321                           ;	MCLRE = EXTMCLR, If LVP = 0, MCLR pin is MCLR; If LVP = 1, RE3 pin function is MCLR
  2322                           ;	Power-up timer selection bits
  2323                           ;	PWRTS = PWRT_OFF, PWRT is disabled
  2324                           ;	Multi-vector enable bit
  2325                           ;	MVECEN = OFF, Interrupt contoller does not use vector table to prioritze interrupts
  2326                           ;	IVTLOCK bit One-way set enable bit
  2327                           ;	IVT1WAY = ON, IVTLOCKED bit can be cleared and set only once
  2328                           ;	Low Power BOR Enable bit
  2329                           ;	LPBOREN = OFF, Low-Power BOR disabled
  2330                           ;	Brown-out Reset Enable bits
  2331                           ;	BOREN = SBORDIS, Brown-out Reset enabled , SBOREN bit is ignored
  2332   300002                     	org	3145730
  2333   300002  F7                 	db	247
  2334                           
  2335                           ;Config register CONFIG4 @ 0x300003
  2336                           ;	Brown-out Reset Voltage Selection bits
  2337                           ;	BORV = VBOR_1P9, Brown-out Reset Voltage (VBOR) set to 1.9V
  2338                           ;	ZCD Disable bit
  2339                           ;	ZCD = OFF, ZCD module is disabled. ZCD can be enabled by setting the ZCDSEN bit of ZCD
      +                          CON
  2340                           ;	PPSLOCK bit One-Way Set Enable bit
  2341                           ;	PPS1WAY = ON, PPSLOCKED bit can be cleared and set only once; PPS registers remain loc
      +                          ked after one clear/set cycle
  2342                           ;	Stack Full/Underflow Reset Enable bit
  2343                           ;	STVREN = ON, Stack full/underflow will cause Reset
  2344                           ;	Low Voltage Programming Enable bit
  2345                           ;	LVP = ON, Low voltage programming enabled. MCLR/VPP pin function is MCLR. MCLRE config
      +                          uration bit is ignored
  2346                           ;	Background Debugger
  2347                           ;	DEBUG = OFF, Background Debugger disabled
  2348                           ;	Extended Instruction Set Enable bit
  2349                           ;	XINST = OFF, Extended Instruction Set and Indexed Addressing Mode disabled
  2350   300003                     	org	3145731
  2351   300003  FF                 	db	255
  2352                           
  2353                           ;Config register CONFIG5 @ 0x300004
  2354                           ;	WDT Period selection bits
  2355                           ;	WDTCPS = WDTCPS_31, Divider ratio 1:65536; software control of WDTPS
  2356                           ;	WDT operating mode
  2357                           ;	WDTE = OFF, WDT Disabled; SWDTEN is ignored
  2358   300004                     	org	3145732
  2359   300004  9F                 	db	159
  2360                           
  2361                           ;Config register CONFIG6 @ 0x300005
  2362                           ;	WDT Window Select bits
  2363                           ;	WDTCWS = WDTCWS_7, window always open (100%); software control; keyed access not requi
      +                          red
  2364                           ;	WDT input clock selector
  2365                           ;	WDTCCS = SC, Software Control
  2366   300005                     	org	3145733
  2367   300005  FF                 	db	255
  2368                           
  2369                           ;Config register CONFIG7 @ 0x300006
  2370                           ;	Boot Block Size Selection bits
  2371                           ;	BBSIZE = BBSIZE_16384, Boot Block size is 16384 words
  2372   300006                     	org	3145734
  2373   300006  7F                 	db	127
  2374                           
  2375                           ;Config register CONFIG8 @ 0x300007
  2376                           ;	SAF Block Size Selection bits
  2377                           ;	SAFSZ = SAFSZ_NONE, NONE
  2378   300007                     	org	3145735
  2379   300007  FF                 	db	255
  2380                           
  2381                           ;Config register CONFIG9 @ 0x300008
  2382                           ;	Boot Block Write Protection bit
  2383                           ;	WRTB = OFF, Boot Block not Write protected
  2384                           ;	Configuration Register Write Protection bit
  2385                           ;	WRTC = OFF, Configuration registers not Write protected
  2386                           ;	Data EEPROM Write Protection bit
  2387                           ;	WRTD = OFF, Data EEPROM not Write protected
  2388                           ;	SAF Write protection bit
  2389                           ;	WRTSAF = OFF, SAF not Write Protected
  2390                           ;	Application Block write protection bit
  2391                           ;	WRTAPP = OFF, Application Block not write protected
  2392   300008                     	org	3145736
  2393   300008  FF                 	db	255
  2394                           
  2395                           ;Config register CONFIG10 @ 0x300009
  2396                           ;	Data EEPROM Code Protection bit
  2397                           ;	CPD = OFF, Data EEPROM code protection disabled
  2398   300009                     	org	3145737
  2399   300009  FF                 	db	255
  2400                           
  2401                           ;Config register CONFIG11 @ 0x30000A
  2402                           ;	PFM Code Protection bit
  2403                           ;	CP = OFF, PFM code protection disabled
  2404   30000A                     	org	3145738
  2405   30000A  FF                 	db	255
  2406                           tosu	equ	0x4FF
  2407                           tosh	equ	0x4FE
  2408                           tosl	equ	0x4FD
  2409                           stkptr	equ	0x4FC
  2410                           pclatu	equ	0x4FB
  2411                           pclath	equ	0x4FA
  2412                           pcl	equ	0x4F9
  2413                           tblptru	equ	0x4F8
  2414                           tblptrh	equ	0x4F7
  2415                           tblptrl	equ	0x4F6
  2416                           tablat	equ	0x4F5
  2417                           prodh	equ	0x4F4
  2418                           prodl	equ	0x4F3
  2419                           indf0	equ	0x4EF
  2420                           postinc0	equ	0x4EE
  2421                           postdec0	equ	0x4ED
  2422                           preinc0	equ	0x4EC
  2423                           plusw0	equ	0x4EB
  2424                           fsr0h	equ	0x4EA
  2425                           fsr0l	equ	0x4E9
  2426                           wreg	equ	0x4E8
  2427                           indf1	equ	0x4E7
  2428                           postinc1	equ	0x4E6
  2429                           postdec1	equ	0x4E5
  2430                           preinc1	equ	0x4E4
  2431                           plusw1	equ	0x4E3
  2432                           fsr1h	equ	0x4E2
  2433                           fsr1l	equ	0x4E1
  2434                           bsr	equ	0x4E0
  2435                           indf2	equ	0x4DF
  2436                           postinc2	equ	0x4DE
  2437                           postdec2	equ	0x4DD
  2438                           preinc2	equ	0x4DC
  2439                           plusw2	equ	0x4DB
  2440                           fsr2h	equ	0x4DA
  2441                           fsr2l	equ	0x4D9
  2442                           status	equ	0x4D8

Data Sizes:
    Strings     0
    Constant    48
    Data        0
    BSS         56
    Persistent  6
    Stack       0

Auto Spaces:
    Space          Size  Autos    Used
    COMRAM           95      7      69
    BANK5           160      0       0
    BANK6           256      0       0
    BANK7           256      0       0
    BANK8           256      0       0
    BANK9           256      0       0
    BANK10          256      0       0
    BANK11          256      0       0
    BANK12          256      0       0
    BANK13          256      0       0
    BANK14          256      0       0
    BANK15          256      0       0
    BANK16          256      0       0
    BANK17          256      0       0
    BANK18          256      0       0
    BANK19          256      0       0
    BANK20          256      0       0

Pointer List with Targets:

    INT0_InterruptHandler	PTR FTN()void  size(2) Largest target is 1
		 -> INT0_DefaultInterruptHandler(), NULL(), 

    INT0_SetInterruptHandler@InterruptHandler	PTR FTN()void  size(2) Largest target is 1
		 -> INT0_DefaultInterruptHandler(), 

    INT1_InterruptHandler	PTR FTN()void  size(2) Largest target is 1
		 -> INT1_DefaultInterruptHandler(), NULL(), 

    INT1_SetInterruptHandler@InterruptHandler	PTR FTN()void  size(2) Largest target is 1
		 -> INT1_DefaultInterruptHandler(), 

    INT2_InterruptHandler	PTR FTN()void  size(2) Largest target is 1
		 -> INT2_DefaultInterruptHandler(), NULL(), 

    INT2_SetInterruptHandler@InterruptHandler	PTR FTN()void  size(2) Largest target is 1
		 -> INT2_DefaultInterruptHandler(), 

    S556$17$0	PTR FTN()void  size(2) Largest target is 0

    S556$18$0	PTR FTN()void  size(2) Largest target is 0

    S556$20$0	PTR FTN()void  size(2) Largest target is 1
		 -> UART2_DefaultFramingErrorCallback(), 

    S556$21$0	PTR FTN()void  size(2) Largest target is 1
		 -> UART2_DefaultOverrunErrorCallback(), 

    S556$22$0	PTR FTN()void  size(2) Largest target is 1
		 -> UART2_DefaultParityErrorCallback(), 

    S556$AutoBaudEventEnableGet	PTR FTN()_Bool  size(2) Largest target is 1
		 -> NULL(), 

    S556$AutoBaudQuery	PTR FTN()_Bool  size(2) Largest target is 1
		 -> UART2_AutoBaudQuery(), 

    S556$AutoBaudSet	PTR FTN(_Bool ,)void  size(2) Largest target is 1
		 -> UART2_AutoBaudSet(), 

    S556$BaudRateGet	PTR FTN()unsigned long  size(2) Largest target is 1
		 -> NULL(), 

    S556$BaudRateSet	PTR FTN(unsigned long ,)void  size(2) Largest target is 1
		 -> NULL(), 

    S556$BRGCountGet	PTR FTN()unsigned long  size(2) Largest target is 1
		 -> NULL(), 

    S556$BRGCountSet	PTR FTN(unsigned long ,)void  size(2) Largest target is 1
		 -> NULL(), 

    S556$Deinitialize	PTR FTN()void  size(2) Largest target is 1
		 -> UART2_Deinitialize(), 

    S556$ErrorGet	PTR FTN()unsigned int  size(2) Largest target is 2
		 -> UART2_ErrorGet(), 

    S556$EventCallbackRegister	PTR FTN(PTR FTN()void ,)void  size(2) Largest target is 1
		 -> NULL(), 

    S556$FramingErrorCallbackRegister	PTR FTN(PTR FTN()void ,)void  size(2) Largest target is 1
		 -> UART2_FramingErrorCallbackRegister(), 

    S556$Initialize	PTR FTN()void  size(2) Largest target is 1
		 -> UART2_Initialize(), 

    S556$IsRxReady	PTR FTN()_Bool  size(2) Largest target is 1
		 -> UART2_IsRxReady(), 

    S556$IsTxDone	PTR FTN()_Bool  size(2) Largest target is 1
		 -> UART2_IsTxDone(), 

    S556$IsTxReady	PTR FTN()_Bool  size(2) Largest target is 1
		 -> UART2_IsTxReady(), 

    S556$OverrunErrorCallbackRegister	PTR FTN(PTR FTN()void ,)void  size(2) Largest target is 1
		 -> UART2_OverrunErrorCallbackRegister(), 

    S556$ParityErrorCallbackRegister	PTR FTN(PTR FTN()void ,)void  size(2) Largest target is 1
		 -> UART2_ParityErrorCallbackRegister(), 

    S556$Read	PTR FTN()unsigned char  size(2) Largest target is 1
		 -> UART2_Read(), 

    S556$RxCompleteCallbackRegister	PTR FTN(PTR FTN()void ,)void  size(2) Largest target is 1
		 -> UART2_RxCompleteCallbackRegister(), 

    S556$TransmitDisable	PTR FTN()void  size(2) Largest target is 1
		 -> UART2_TransmitDisable(), 

    S556$TransmitEnable	PTR FTN()void  size(2) Largest target is 1
		 -> UART2_TransmitEnable(), 

    S556$TxCollisionCallbackRegister	PTR FTN(PTR FTN()void ,)void  size(2) Largest target is 1
		 -> NULL(), 

    S556$TxCompleteCallbackRegister	PTR FTN(PTR FTN()void ,)void  size(2) Largest target is 1
		 -> UART2_TxCompleteCallbackRegister(), 

    S556$Write	PTR FTN(unsigned char ,)void  size(2) Largest target is 1
		 -> UART2_Write(), 

    SW0_InterruptHandler	PTR FTN()void  size(2) Largest target is 1
		 -> SW0_DefaultInterruptHandler(), NULL(), 

    SW0_SetInterruptHandler@InterruptHandler	PTR FTN()void  size(2) Largest target is 1
		 -> SW0_DefaultInterruptHandler(), 

    UART2$AutoBaudEventEnableGet	PTR FTN()_Bool  size(2) Largest target is 1
		 -> NULL(), 

    UART2$AutoBaudQuery	PTR FTN()_Bool  size(2) Largest target is 1
		 -> UART2_AutoBaudQuery(), 

    UART2$AutoBaudSet	PTR FTN(_Bool ,)void  size(2) Largest target is 1
		 -> UART2_AutoBaudSet(), 

    UART2$BaudRateGet	PTR FTN()unsigned long  size(2) Largest target is 1
		 -> NULL(), 

    UART2$BaudRateSet	PTR FTN(unsigned long ,)void  size(2) Largest target is 1
		 -> NULL(), 

    UART2$BRGCountGet	PTR FTN()unsigned long  size(2) Largest target is 1
		 -> NULL(), 

    UART2$BRGCountSet	PTR FTN(unsigned long ,)void  size(2) Largest target is 1
		 -> NULL(), 

    UART2$Deinitialize	PTR FTN()void  size(2) Largest target is 1
		 -> UART2_Deinitialize(), 

    UART2$ErrorGet	PTR FTN()unsigned int  size(2) Largest target is 2
		 -> UART2_ErrorGet(), 

    UART2$EventCallbackRegister	PTR FTN(PTR FTN()void ,)void  size(2) Largest target is 1
		 -> NULL(), 

    UART2$FramingErrorCallbackRegister	PTR FTN(PTR FTN()void ,)void  size(2) Largest target is 1
		 -> UART2_FramingErrorCallbackRegister(), 

    UART2$Initialize	PTR FTN()void  size(2) Largest target is 1
		 -> UART2_Initialize(), 

    UART2$IsRxReady	PTR FTN()_Bool  size(2) Largest target is 1
		 -> UART2_IsRxReady(), 

    UART2$IsTxDone	PTR FTN()_Bool  size(2) Largest target is 1
		 -> UART2_IsTxDone(), 

    UART2$IsTxReady	PTR FTN()_Bool  size(2) Largest target is 1
		 -> UART2_IsTxReady(), 

    UART2$OverrunErrorCallbackRegister	PTR FTN(PTR FTN()void ,)void  size(2) Largest target is 1
		 -> UART2_OverrunErrorCallbackRegister(), 

    UART2$ParityErrorCallbackRegister	PTR FTN(PTR FTN()void ,)void  size(2) Largest target is 1
		 -> UART2_ParityErrorCallbackRegister(), 

    UART2$Read	PTR FTN()unsigned char  size(2) Largest target is 1
		 -> UART2_Read(), 

    UART2$RxCompleteCallbackRegister	PTR FTN(PTR FTN()void ,)void  size(2) Largest target is 1
		 -> UART2_RxCompleteCallbackRegister(), 

    UART2$TransmitDisable	PTR FTN()void  size(2) Largest target is 1
		 -> UART2_TransmitDisable(), 

    UART2$TransmitEnable	PTR FTN()void  size(2) Largest target is 1
		 -> UART2_TransmitEnable(), 

    UART2$TxCollisionCallbackRegister	PTR FTN(PTR FTN()void ,)void  size(2) Largest target is 1
		 -> NULL(), 

    UART2$TxCompleteCallbackRegister	PTR FTN(PTR FTN()void ,)void  size(2) Largest target is 1
		 -> UART2_TxCompleteCallbackRegister(), 

    UART2$Write	PTR FTN(unsigned char ,)void  size(2) Largest target is 1
		 -> UART2_Write(), 

    UART2_FramingErrorCallbackRegister@callbackHandler	PTR FTN()void  size(2) Largest target is 1
		 -> UART2_DefaultFramingErrorCallback(), 

    UART2_FramingErrorHandler	PTR FTN()void  size(2) Largest target is 1
		 -> UART2_DefaultFramingErrorCallback(), NULL(), 

    UART2_OverrunErrorCallbackRegister@callbackHandler	PTR FTN()void  size(2) Largest target is 1
		 -> UART2_DefaultOverrunErrorCallback(), 

    UART2_OverrunErrorHandler	PTR FTN()void  size(2) Largest target is 1
		 -> UART2_DefaultOverrunErrorCallback(), NULL(), 

    UART2_ParityErrorCallbackRegister@callbackHandler	PTR FTN()void  size(2) Largest target is 1
		 -> UART2_DefaultParityErrorCallback(), 

    UART2_ParityErrorHandler	PTR FTN()void  size(2) Largest target is 1
		 -> UART2_DefaultParityErrorCallback(), NULL(), 

    UART2_RxCompleteInterruptHandler	PTR FTN()void  size(2) Largest target is 1
		 -> NULL(), 

    UART2_RxInterruptHandler	PTR FTN()void  size(2) Largest target is 1
		 -> UART2_ReceiveISR(), NULL(), 

    UART2_TxCompleteInterruptHandler	PTR FTN()void  size(2) Largest target is 1
		 -> NULL(), 

    UART2_TxInterruptHandler	PTR FTN()void  size(2) Largest target is 1
		 -> UART2_TransmitISR(), NULL(), 


Critical Paths under _main in COMRAM

    _UART2_Initialize->_UART2_FramingErrorCallbackRegister
    _UART2_Initialize->_UART2_OverrunErrorCallbackRegister
    _UART2_Initialize->_UART2_ParityErrorCallbackRegister
    _PIN_MANAGER_Initialize->_SW0_SetInterruptHandler
    _INTERRUPT_Initialize->_INT0_SetInterruptHandler
    _INTERRUPT_Initialize->_INT1_SetInterruptHandler
    _INTERRUPT_Initialize->_INT2_SetInterruptHandler

Critical Paths under _INTERRUPT_InterruptManager in COMRAM

    _INTERRUPT_InterruptManager->_UART2_ReceiveISR
    _SW0_DefaultInterruptHandler->_UART2_Write

Critical Paths under _main in BANK5

    None.

Critical Paths under _INTERRUPT_InterruptManager in BANK5

    None.

Critical Paths under _main in BANK6

    None.

Critical Paths under _INTERRUPT_InterruptManager in BANK6

    None.

Critical Paths under _main in BANK7

    None.

Critical Paths under _INTERRUPT_InterruptManager in BANK7

    None.

Critical Paths under _main in BANK8

    None.

Critical Paths under _INTERRUPT_InterruptManager in BANK8

    None.

Critical Paths under _main in BANK9

    None.

Critical Paths under _INTERRUPT_InterruptManager in BANK9

    None.

Critical Paths under _main in BANK10

    None.

Critical Paths under _INTERRUPT_InterruptManager in BANK10

    None.

Critical Paths under _main in BANK11

    None.

Critical Paths under _INTERRUPT_InterruptManager in BANK11

    None.

Critical Paths under _main in BANK12

    None.

Critical Paths under _INTERRUPT_InterruptManager in BANK12

    None.

Critical Paths under _main in BANK13

    None.

Critical Paths under _INTERRUPT_InterruptManager in BANK13

    None.

Critical Paths under _main in BANK14

    None.

Critical Paths under _INTERRUPT_InterruptManager in BANK14

    None.

Critical Paths under _main in BANK15

    None.

Critical Paths under _INTERRUPT_InterruptManager in BANK15

    None.

Critical Paths under _main in BANK16

    None.

Critical Paths under _INTERRUPT_InterruptManager in BANK16

    None.

Critical Paths under _main in BANK17

    None.

Critical Paths under _INTERRUPT_InterruptManager in BANK17

    None.

Critical Paths under _main in BANK18

    None.

Critical Paths under _INTERRUPT_InterruptManager in BANK18

    None.

Critical Paths under _main in BANK19

    None.

Critical Paths under _INTERRUPT_InterruptManager in BANK19

    None.

Critical Paths under _main in BANK20

    None.

Critical Paths under _INTERRUPT_InterruptManager in BANK20

    None.

Call Graph Tables:

 ---------------------------------------------------------------------------------
 (Depth) Function   	        Calls       Base Space   Used Autos Params    Refs
 ---------------------------------------------------------------------------------
 (0) _main                                                 0     0      0     752
                  _SYSTEM_Initialize
 ---------------------------------------------------------------------------------
 (1) _SYSTEM_Initialize                                    0     0      0     752
                   _CLOCK_Initialize
               _INTERRUPT_Initialize
             _PIN_MANAGER_Initialize
                   _UART2_Initialize
 ---------------------------------------------------------------------------------
 (2) _UART2_Initialize                                     0     0      0     360
 _UART2_FramingErrorCallbackRegister
 _UART2_OverrunErrorCallbackRegister
  _UART2_ParityErrorCallbackRegister
 ---------------------------------------------------------------------------------
 (3) _UART2_ParityErrorCallbackRegister                    2     0      2     120
                                              5 COMRAM     2     0      2
 ---------------------------------------------------------------------------------
 (3) _UART2_OverrunErrorCallbackRegister                   2     0      2     120
                                              5 COMRAM     2     0      2
 ---------------------------------------------------------------------------------
 (3) _UART2_FramingErrorCallbackRegister                   2     0      2     120
                                              5 COMRAM     2     0      2
 ---------------------------------------------------------------------------------
 (2) _PIN_MANAGER_Initialize                               0     0      0      98
            _SW0_SetInterruptHandler
 ---------------------------------------------------------------------------------
 (3) _SW0_SetInterruptHandler                              2     0      2      98
                                              5 COMRAM     2     0      2
 ---------------------------------------------------------------------------------
 (2) _INTERRUPT_Initialize                                 0     0      0     294
           _INT0_SetInterruptHandler
           _INT1_SetInterruptHandler
           _INT2_SetInterruptHandler
 ---------------------------------------------------------------------------------
 (3) _INT2_SetInterruptHandler                             2     0      2      98
                                              5 COMRAM     2     0      2
 ---------------------------------------------------------------------------------
 (3) _INT1_SetInterruptHandler                             2     0      2      98
                                              5 COMRAM     2     0      2
 ---------------------------------------------------------------------------------
 (3) _INT0_SetInterruptHandler                             2     0      2      98
                                              5 COMRAM     2     0      2
 ---------------------------------------------------------------------------------
 (2) _CLOCK_Initialize                                     0     0      0       0
 ---------------------------------------------------------------------------------
 Estimated maximum stack depth 3
 ---------------------------------------------------------------------------------
 (Depth) Function   	        Calls       Base Space   Used Autos Params    Refs
 ---------------------------------------------------------------------------------
 (4) _INTERRUPT_InterruptManager                           2     2      0     120
                                              3 COMRAM     2     2      0
                                NULL *
                    _PIN_MANAGER_IOC
                   _UART2_ReceiveISR *
                  _UART2_TransmitISR *
 ---------------------------------------------------------------------------------
 (5) _UART2_TransmitISR                                    1     1      0      15
                                              0 COMRAM     1     1      0
 ---------------------------------------------------------------------------------
 (5) _UART2_ReceiveISR                                     3     3      0      60
                                              0 COMRAM     3     3      0
                                NULL *
  _UART2_DefaultFramingErrorCallback *
  _UART2_DefaultOverrunErrorCallback *
 ---------------------------------------------------------------------------------
 (6) _UART2_DefaultOverrunErrorCallback                    0     0      0       0
 ---------------------------------------------------------------------------------
 (6) _UART2_DefaultFramingErrorCallback                    0     0      0       0
 ---------------------------------------------------------------------------------
 (5) _PIN_MANAGER_IOC                                      0     0      0      45
                            _SW0_ISR
 ---------------------------------------------------------------------------------
 (6) _SW0_ISR                                              0     0      0      45
                                NULL *
        _SW0_DefaultInterruptHandler *
 ---------------------------------------------------------------------------------
 (7) _SW0_DefaultInterruptHandler                          0     0      0      45
                        _UART2_Write
 ---------------------------------------------------------------------------------
 (8) _UART2_Write                                          2     2      0      45
                                              0 COMRAM     2     2      0
 ---------------------------------------------------------------------------------
 (6) NULL(Fake)                                            0     0      0       0
 ---------------------------------------------------------------------------------
 Estimated maximum stack depth 8
 ---------------------------------------------------------------------------------

 Call Graph Graphs:

 _main (ROOT)
   _SYSTEM_Initialize
     _CLOCK_Initialize
     _INTERRUPT_Initialize
       _INT0_SetInterruptHandler
       _INT1_SetInterruptHandler
       _INT2_SetInterruptHandler
     _PIN_MANAGER_Initialize
       _SW0_SetInterruptHandler
     _UART2_Initialize
       _UART2_FramingErrorCallbackRegister
       _UART2_OverrunErrorCallbackRegister
       _UART2_ParityErrorCallbackRegister

 _INTERRUPT_InterruptManager (ROOT)
   NULL(Fake) *
   _PIN_MANAGER_IOC *
     _SW0_ISR
       NULL(Fake) *
       _SW0_DefaultInterruptHandler *
         _UART2_Write
   _UART2_ReceiveISR *
     NULL(Fake) *
     _UART2_DefaultFramingErrorCallback *
     _UART2_DefaultOverrunErrorCallback *
   _UART2_TransmitISR *

 Address spaces:
Name               Size   Autos  Total    Cost      Usage
BIGRAM             FFF      0       0      37        0.0%
BITBIGSFRhhhlhh    139      0       0      49        0.0%
EEDATA             100      0       0       0        0.0%
BITBIGSFR_1        100      0       0      36        0.0%
BITBANK20          100      0       0      34        0.0%
BANK20             100      0       0      35        0.0%
BITBANK19          100      0       0      32        0.0%
BANK19             100      0       0      33        0.0%
BITBANK18          100      0       0      30        0.0%
BANK18             100      0       0      31        0.0%
BITBANK17          100      0       0      28        0.0%
BANK17             100      0       0      29        0.0%
BITBANK16          100      0       0      26        0.0%
BANK16             100      0       0      27        0.0%
BITBANK15          100      0       0      24        0.0%
BANK15             100      0       0      25        0.0%
BITBANK14          100      0       0      22        0.0%
BANK14             100      0       0      23        0.0%
BITBANK13          100      0       0      20        0.0%
BANK13             100      0       0      21        0.0%
BITBANK12          100      0       0      18        0.0%
BANK12             100      0       0      19        0.0%
BITBANK11          100      0       0      16        0.0%
BANK11             100      0       0      17        0.0%
BITBANK10          100      0       0      14        0.0%
BANK10             100      0       0      15        0.0%
BITBANK9           100      0       0      12        0.0%
BANK9              100      0       0      13        0.0%
BITBANK8           100      0       0      10        0.0%
BANK8              100      0       0      11        0.0%
BITBANK7           100      0       0       8        0.0%
BANK7              100      0       0       9        0.0%
BITBANK6           100      0       0       6        0.0%
BANK6              100      0       0       7        0.0%
BITBIGSFRhhhlhh     BF      0       0      58        0.0%
BITBIGSFRl          AC      0       0      63        0.0%
BITBANK5            A0      0       0       4        0.0%
BANK5               A0      0       0       5        0.0%
BITBIGSFRhhhll      8C      0       0      60        0.0%
BITBIGSFRhhhlhh     66      0       0      57        0.0%
BITCOMRAM           5F      0       0       0        0.0%
COMRAM              5F      7      45       1       72.6%
BITBIGSFRhhhhll     4E      0       0      45        0.0%
BITBIGSFRhhhlhh     2B      0       0      55        0.0%
BITBIGSFRhhhhh      29      0       0      38        0.0%
BITBIGSFRhhhhlh     19      0       0      39        0.0%
BITBIGSFRhhhlhh     18      0       0      46        0.0%
BITBIGSFRhhhlhh     10      0       0      56        0.0%
BITBIGSFRhhhlhh     10      0       0      47        0.0%
BITBIGSFRhhhhll      7      0       0      44        0.0%
BITBIGSFRhhhhlh      4      0       0      42        0.0%
BITBIGSFRhhhlhh      3      0       0      48        0.0%
BITBIGSFRhhhlhl      2      0       0      59        0.0%
BITBIGSFRhhhhll      2      0       0      43        0.0%
BITBIGSFRhhhlhh      1      0       0      50        0.0%
BITBIGSFRhhhlhh      1      0       0      51        0.0%
BITBIGSFRhhhlhh      1      0       0      52        0.0%
BITBIGSFRhhhlhh      1      0       0      53        0.0%
BITBIGSFRhhhlhh      1      0       0      54        0.0%
BITBIGSFRhhhhlh      1      0       0      40        0.0%
BITBIGSFRhhhhlh      1      0       0      41        0.0%
BITBIGSFRhhlh        1      0       0      61        0.0%
BITBIGSFRhl          1      0       0      62        0.0%
BIGSFR_1             0      0       0     200        0.0%
BIGSFR               0      0       0     200        0.0%
BITSFR_6             0      0       0     200        0.0%
SFR_6                0      0       0     200        0.0%
BITSFR_5             0      0       0     200        0.0%
SFR_5                0      0       0     200        0.0%
BITSFR_4             0      0       0     200        0.0%
SFR_4                0      0       0     200        0.0%
BITSFR_3             0      0       0     200        0.0%
SFR_3                0      0       0     200        0.0%
BITSFR_2             0      0       0     200        0.0%
SFR_2                0      0       0     200        0.0%
BITSFR_1             0      0       0     200        0.0%
SFR_1                0      0       0     200        0.0%
BITSFR               0      0       0     200        0.0%
SFR                  0      0       0     200        0.0%
STACK                0      0       0       2        0.0%
NULL                 0      0       0       0        0.0%
ABS                  0      0      45      64        0.0%
DATA                 0      0      45       3        0.0%
CODE                 0      0       0       0        0.0%


Microchip Technology PIC18 Macro Assembler V2.46 build 20240104201356 
Symbol Table                                                                                   Tue Feb 13 10:39:10 2024

                                               l15 1A20                                                 l32 1984  
                                               l81 1932                                                l102 1A56  
                                              l115 1A4C                                                l128 1A42  
                                              l530 19F8                                                l419 187E  
                                              l278 1742                                                l534 19DC  
                                              l560 1A28                                                l289 1A38  
                                              l538 19C0                                                l559 1A28  
                                              u370 19F0                                                u371 19EC  
                                              u380 19D4                                                u381 19D0  
                                              u390 19B8                                                u391 19B4  
                       ??_INT0_SetInterruptHandler 0540         __end_of_UART2_FramingErrorCallbackRegister 19FA  
             ??_UART2_FramingErrorCallbackRegister 0540                ?_UART2_FramingErrorCallbackRegister 053E  
               _UART2_FramingErrorCallbackRegister 19DE                                                prod 04F3  
                                              tosl 04FD                                                wreg 04E8  
                       UART2_ReceiveISR@tempRxHead 053B                                     _UART2_IsTxDone 0000  
                                             l1600 168E                                               l1610 16CC  
                                             l1602 16C0                                               l1276 1964  
                                             l1620 16DA                                               l1612 16CE  
                                             l1604 16C2                                               l1700 1A1C  
                                             l1622 1734                                               l1614 16D0  
                                             l1606 16C4                                               l1630 17F4  
                                             l1702 1A22                                               l1624 1740  
                                             l1616 16D2                                               l1608 16C6  
                                             l1640 1810                                               l1632 17FE  
                                             l1704 1A26                                               l1570 1A4E  
                                             l1618 16D4                                               l1650 1824  
                                             l1642 1814                                               l1634 1804  
                                             l1626 17EA                                               l1572 1A44  
                                             l1580 19F0                                               l1660 1838  
                                             l1652 1828                                               l1644 1818  
                                             l1636 1808                                               l1628 17EC  
                                             l1574 1A3A                                               l1590 164E  
                                             l1582 19C2                                               l1670 1868  
                                             l1662 1844                                               l1654 182C  
                                             l1646 181C                                               l1638 180C  
                                             l1576 1A30                                               l1592 1668  
                                             l1584 19D4                                               l1680 187C  
                                             l1672 186C                                               l1664 1850  
                                             l1656 1830                                               l1648 1820  
                                             l1690 1922                                               l1682 1900  
                                             l1594 1672                                               l1578 19DE  
                                             l1586 19A6                                               l1674 1870  
                                             l1666 185C                                               l1658 1834  
                                             l1692 1924                                               l1684 1906  
                                             l1596 1678                                               l1588 19B8  
                                             l1676 1874                                               l1668 1864  
                                             l1686 1912                                               l1598 1688  
                                             l1678 1878                                               l1694 1A10  
                                             l1688 1914                                               l1696 1A14  
                                             l1698 1A18                                               _LATA 0140  
                                             _LATB 0141                                               _LATC 0142  
                                             _LATD 0143                                               _LATE 0144  
                                             _LATF 0145                                               i2l92 17E0  
                                             i2l86 1770                                               i2l88 17A8  
                                             i2l89 17E0                                               _WPUA 0401  
                                             _WPUB 0409                                               _WPUC 0411  
                                             _WPUD 0419                                               _WPUE 0421  
                                             _WPUF 0429                                     _UART2_ErrorGet 0000  
                                  __end_of_SW0_ISR 1964                                               _main 1A22  
                                             indf2 04DF                                               fsr2l 04D9  
                        ?_INT2_SetInterruptHandler 053E                                               prodl 04F3  
                                             start 001A                                       ___param_bank 0000  
                                  _UART2_IsRxReady 0000                                    _UART2_IsTxReady 0000  
                                            ?_main 0539                                              _U2P1L 02B8  
                                            _U2P2L 02BA                                              _U2P3L 02BC  
                                            _IOCAF 0407                                              _IOCBF 040F  
                                            _IOCCF 0417                                              _IOCAN 0406  
                                            _IOCEF 0427                                              _IOCAP 0405  
                                            _IOCBN 040E                                              _IOCBP 040D  
                                            _IOCCN 0416                                              _IOCCP 0415  
                                            _IOCEN 0426                                              _IOCEP 0425  
                                            _IOCWF 043F                                              _IOCWN 043E  
                                            _IOCWP 043D                                              _U2UIR 02C4  
                                            _U2RXB 02B4                                              _U2TXB 02B6  
                                            i2l511 18C8                                              i2l520 1A62  
                                            i2l504 164C                                              i2l282 1A0E  
                                            i2l514 18FC                                              i2l523 1A60  
                                            i2l508 18C6                                              i2l292 1A5E  
                                            i2l517 18FE                                              i2l286 1962  
                                            i2l498 161A                                              _OSCEN 00B3  
                                            _UART2 1501                                              _TRISA 0148  
                                            _TRISB 0149                                              _TRISC 014A  
                                            _TRISD 014B                                              _TRISE 014C  
                                            _TRISF 014D                            __end_of_PIN_MANAGER_IOC 1A10  
                     ?_SW0_DefaultInterruptHandler 0539                           _INT1_SetInterruptHandler 1A44  
                                            pclath 04FA                                              pclatu 04FB  
                                            status 04D8                                    __initialization 1986  
                                     __end_of_main 1A30                        ?_INTERRUPT_InterruptManager 0539  
                                     ?_UART2_Write 0539                                             ??_main 0540  
                                    __activetblptr 0003         __end_of_UART2_OverrunErrorCallbackRegister 19DE  
             ??_UART2_OverrunErrorCallbackRegister 0540                ?_UART2_OverrunErrorCallbackRegister 053E  
               _UART2_OverrunErrorCallbackRegister 19C2   UART2_ParityErrorCallbackRegister@callbackHandler 053E  
UART2_OverrunErrorCallbackRegister@callbackHandler 053E  UART2_FramingErrorCallbackRegister@callbackHandler 053E  
                                        ??_SW0_ISR 053B                                             _ACTCON 00AC  
                                           _ANSELA 0400                                             _ANSELB 0408  
                                           _ANSELC 0410                                             _ANSELD 0418  
                                           _ANSELE 0420                                             _ANSELF 0428  
                                           _RB1I2C 0286                                             _RB2I2C 0285  
                                           _RC3I2C 0288                                             _RC4I2C 0287  
                                           _U2CON0 02BE                                             _U2CON1 02BF  
                                           _U2CON2 02C0                                             _U2BRGH 02C2  
                                           _U2FIFO 02C3                                             _U2BRGL 02C1  
                                           _RB4PPS 020D                      ??_SW0_DefaultInterruptHandler 053B  
                                           _ODCONA 0402                                             _ODCONB 040A  
                                           _ODCONC 0412                                             _ODCOND 041A  
                                           _ODCONE 0422                                             _ODCONF 042A  
                                           i2l1240 1890                                             i2l1400 1532  
                                           i2l1250 18C2                                             i2l1242 1898  
                                           i2l1410 1592                                             i2l1402 1546  
                                           i2l1252 18C4                                             i2l1244 18A8  
                                           i2l1420 15E2                                             i2l1412 15A2  
                                           i2l1404 1556                                             i2l1246 18B8  
                                           i2l1238 1882                                             i2l1262 1A58  
                                           i2l1430 164A                                             i2l1422 15F4  
                                           i2l1414 15B4                                             i2l1406 1568  
                                           i2l1248 18BE                                             i2l1416 15C6  
                                           i2l1408 157A                                             i2l1440 18F2  
                                           i2l1426 1636                                             i2l1418 15DE  
                                           i2l1442 18F6                                             i2l1434 18CA  
                                           i2l1450 1768                                             i2l1428 1646  
                                           i2l1436 18DA                                             i2l1452 177E  
                                           i2l1382 1934                                             i2l1438 18EC  
                                           i2l1454 178C                                             i2l1446 174C  
                                           i2l1384 1946                                             i2l1456 17B6  
                                           i2l1448 175A                                             i2l1386 195E  
                                           i2l1458 17C4                                             i2l1396 19FA  
                                           i2l1398 1A0A                                             _INLVLA 0404  
                                           _INLVLB 040C                                             _INLVLC 0414  
                                           _INLVLD 041C                                             _INLVLE 0424  
                                           _INLVLF 042C                                             _OSCFRQ 00B1  
                                           i2u1_40 1890                                             i2u1_41 188C  
                                           i2u2_40 18A8                                             i2u2_41 18A4  
                                           i2u6_40 1946                                             i2u6_41 1942  
                                           i2u7_48 194C                                             i2u8_40 1A0A  
                                           i2u7_49 195E                                             i2u8_41 1A06  
                                           i2u9_40 1556                                             i2u9_41 1552  
                                 _UART2_Initialize 17EA                          _UART2_OverrunErrorHandler 0527  
                              _uart2RxStatusBuffer 0501                                   _UART2_ReceiveISR 1532  
                                           clear_0 198C                   _UART2_DefaultParityErrorCallback 0000  
                                           isa$std 0001                                  ?_CLOCK_Initialize 0539  
                     _INT2_DefaultInterruptHandler 0000                                 ??_CLOCK_Initialize 053E  
                                     __mediumconst 0000            SW0_SetInterruptHandler@InterruptHandler 053E  
         INT2_SetInterruptHandler@InterruptHandler 053E           INT1_SetInterruptHandler@InterruptHandler 053E  
         INT0_SetInterruptHandler@InterruptHandler 053E                                   ?_PIN_MANAGER_IOC 0539  
                 _UART2_TxCompleteInterruptHandler 0523                                  _SYSTEM_Initialize 1A10  
                                       __accesstop 0560                            __end_of__initialization 19A0  
                               ?_SYSTEM_Initialize 0539                                      ___rparam_used 0001  
                              _UART2_AutoBaudQuery 0000                                      __end_of_UART2 1531  
                                   __pcstackCOMRAM 0539                                ??_SYSTEM_Initialize 0540  
                         ?_SW0_SetInterruptHandler 053E          __end_of_UART2_DefaultFramingErrorCallback 1A64  
              ??_UART2_DefaultFramingErrorCallback 0539                 ?_UART2_DefaultFramingErrorCallback 0539  
                _UART2_DefaultFramingErrorCallback 1A62                   __end_of_INT2_SetInterruptHandler 1A44  
                         _UART2_RxInterruptHandler 0542                          __end_of_SYSTEM_Initialize 1A22  
                                _UART2_AutoBaudSet 0000                              _INT0_InterruptHandler 0531  
                                       __pnvCOMRAM 0540                                            IVTBASEH 045E  
                                          IVTBASEL 045D                                            IVTBASEU 045F  
                            _UART2_TransmitDisable 0000                                            _FSCMCON 0458  
                                          _U2ERRIE 02C6                                            _U2ERRIR 02C5  
                       ??_INT1_SetInterruptHandler 0540                                            _U2RXPPS 0274  
                                          _OSCCON1 00AD                                            _OSCCON3 00AF  
                                          i2u10_40 157A                                            i2u10_41 1576  
                                          i2u12_40 15A2                                            i2u11_48 1580  
                                          i2u20_40 1768                                            i2u12_41 159E  
                                          i2u11_49 1592                                            i2u20_41 1764  
                                          i2u13_40 15C6                                            i2u21_40 177E  
                                          i2u13_41 15C2                                            i2u21_41 177A  
                                          i2u22_40 178C                                            i2u22_41 1788  
                                          i2u15_40 15F4                                            i2u14_48 15CC  
                                          i2u15_41 15F0                                            i2u14_49 15DE  
                                          i2u16_40 1606                                            i2u24_40 17B6  
                                          i2u23_48 1792                                            i2u16_41 1600  
                                          i2u24_41 17B2                                            i2u23_49 17A4  
                                          i2u16_46 1608                                            i2u17_40 1632  
                                          i2u25_40 17C4                                            i2u17_41 162E  
                                          i2u25_41 17C0                                            i2u18_40 18DA  
                                          i2u18_41 18D6                                            i2u26_48 17CA  
                                          i2u19_40 175A                                            i2u26_49 17DC  
                                          i2u19_41 1756                                            _OSCTUNE 00B0  
                                          _SLRCONA 0403                                            _SLRCONB 040B  
                                          _SLRCONC 0413                                            _SLRCOND 041B  
                                          _SLRCONE 0423                                            _SLRCONF 042B  
                                          _SW0_ISR 1934                          ?_INT0_SetInterruptHandler 053E  
                                          __Hparam 0000                                            __Lparam 0000  
                  __end_of_SW0_SetInterruptHandler 1A3A                                       __psmallconst 1500  
                                          __pcinit 1986                                            __ramtop 1500  
                                          __ptext0 1A22                                            __ptext1 1A10  
                                          __ptext2 17EA                                            __ptext3 19A6  
                                          __ptext4 19C2                                            __ptext5 19DE  
                                          __ptext6 164E                                            __ptext7 1A30  
                                          __ptext8 1900                                            __ptext9 1A3A  
        __end_of_UART2_DefaultOverrunErrorCallback 1A62                ??_UART2_DefaultOverrunErrorCallback 0539  
               ?_UART2_DefaultOverrunErrorCallback 0539                  _UART2_DefaultOverrunErrorCallback 1A60  
                         ??_PIN_MANAGER_Initialize 0540                                          _IOCAFbits 0407  
                         __end_of_UART2_Initialize 1880                           __end_of_UART2_ReceiveISR 164E  
                             end_of_initialization 19A0                           _INT2_SetInterruptHandler 1A3A  
                                        _U2UIRbits 02C4          __end_of_UART2_ParityErrorCallbackRegister 19C2  
              ??_UART2_ParityErrorCallbackRegister 0540                 ?_UART2_ParityErrorCallbackRegister 053E  
                _UART2_ParityErrorCallbackRegister 19A6                                          _PIR10bits 04BC  
                 _UART2_RxCompleteCallbackRegister 0000                                 _UART2_Deinitialize 0000  
                                          postdec2 04DD                                            postinc0 04EE  
                                          postinc2 04DE                              _INT1_InterruptHandler 052F  
                     __end_of_INTERRUPT_Initialize 1934                       _INT0_DefaultInterruptHandler 0000  
                              start_initialization 1986                               _SW0_InterruptHandler 0540  
              __end_of_SW0_DefaultInterruptHandler 1A60                        _SW0_DefaultInterruptHandler 1A58  
                                       ivt0x8_base 0008                                  _UART2_TransmitISR 18CA  
                                    _uart2RxBuffer 0511                                      _uart2TxBuffer 0519  
                               ?_UART2_TransmitISR 0539                                ??_UART2_TransmitISR 0539  
                                UART2_Write@txData 053A                                        __pbssCOMRAM 0501  
                 __end_of_INT0_SetInterruptHandler 1A58                          _UART2_FramingErrorHandler 0529  
                                         ?_SW0_ISR 0539                           _UART2_TxInterruptHandler 0544  
                        __end_of_UART2_TransmitISR 1900                              _INT2_InterruptHandler 052D  
                           _PIN_MANAGER_Initialize 164E                               _UART2_TransmitEnable 0000  
                                    ??_UART2_Write 0539                       ??_INTERRUPT_InterruptManager 053C  
                      UART2_TransmitISR@tempTxTail 0539                                        __smallconst 1500  
                       ??_INT2_SetInterruptHandler 0540                                  ?_UART2_Initialize 0539  
                         _UART2_ParityErrorHandler 0525                                 ??_UART2_Initialize 0540  
                             _INTERRUPT_Initialize 1900                                  ?_UART2_ReceiveISR 0539  
                                 _uart2RxLastError 052B                                   _CLOCK_Initialize 1964  
                                      _U2ERRIRbits 02C5                                 ??_UART2_ReceiveISR 0539  
                                         _LATCbits 0142                          ?_INT1_SetInterruptHandler 053E  
                                         _PIE0bits 04A7                                           _PIE8bits 04AF  
                                         _PIR0bits 04B2                                           _PIR1bits 04B3  
                                         _PIR6bits 04B8                                           _PIR8bits 04BA  
                                ??_PIN_MANAGER_IOC 053B                                __end_of_UART2_Write 18CA  
                                      _INTCON0bits 04D6                              ?_INTERRUPT_Initialize 0539  
                          _SW0_SetInterruptHandler 1A30                           _INT0_SetInterruptHandler 1A4E  
                                     _uart2RxCount 0533                                           __Hrparam 0000  
                                         __Lrparam 0000                   _UART2_TxCompleteCallbackRegister 0000  
                                         __pivt0x8 0008                                           __ptext10 1A44  
                                         __ptext11 1A4E                                           __ptext20 1A58  
                                         __ptext12 1964                                           __ptext21 1880  
                                         __ptext13 1744                                           __ptext14 18CA  
                                         __ptext15 1532                                           __ptext16 1A60  
                                         __ptext17 1A62                                           __ptext18 19FA  
                                         __ptext19 1934                              UART2_Write@tempTxHead 0539  
                                       _U2CON0bits 02BE                                         _U2CON1bits 02BF  
                                         isa$xinst 0000                   _UART2_RxCompleteInterruptHandler 0521  
               __end_of_INTERRUPT_InterruptManager 17EA                         _INTERRUPT_InterruptManager 1744  
                     _INT1_DefaultInterruptHandler 0000                                        _UART2_Write 1880  
                                      _uart2RxHead 0535                                        _uart2TxHead 0538  
                                      _uart2RxTail 0534                                        _uart2TxTail 0537  
                        ??_SW0_SetInterruptHandler 0540                             ??_INTERRUPT_Initialize 0540  
                                         intlevel2 0000                            ?_PIN_MANAGER_Initialize 0539  
                                       _UART2_Read 0000                             _uart2TxBufferRemaining 0536  
                         __end_of_CLOCK_Initialize 1986                           UART2_ReceiveISR@regValue 053A  
                 __end_of_INT1_SetInterruptHandler 1A4E                     __end_of_PIN_MANAGER_Initialize 1744  
                                  _PIN_MANAGER_IOC 19FA  
